; Listing generated by Microsoft (R) Optimizing Compiler Version 16.00.11886.00 

	TITLE	C:\Users\t3fur\Desktop\Trainer Engine T3\Trainer Engine T3\Trainer\main.cpp
	.PPC
	.MODEL FLAT
PUBLIC	??_C@_0BA@LMBLDOEH@Plotting?5Points?$AA@	; `string'
PUBLIC	??_C@_15OIFBPDOF@O?$AAK?$AA?$AA?$AA@		; `string'
PUBLIC	??_C@_1BC@GOAHBJBA@C?$AAo?$AAn?$AAt?$AAi?$AAn?$AAu?$AAe?$AA?$AA?$AA@ ; `string'
PUBLIC	__C2_11886
PUBLIC	?MYPtr2@@3KA					; MYPtr2
PUBLIC	?MYPtr3@@3KA					; MYPtr3
PUBLIC	?hThreadId@@3KA					; hThreadId
PUBLIC	?random_data@@3PAUpoint_vertex@@A		; random_data
PUBLIC	?hThread@@3PAXA					; hThread
PUBLIC	?g_ettr@@3U_EX_TITLE_TERMINATE_REGISTRATION@@A	; g_ettr
PUBLIC	?state@@3U_XINPUT_STATE@@A			; state
PUBLIC	?cavedata@@3PAKA				; cavedata
PUBLIC	?Static_Menu@@3P6AXXZA				; Static_Menu
PUBLIC	?addy3@@3PAKA					; addy3
PUBLIC	?addy1@@3PAKA					; addy1
PUBLIC	?XNotifyQueueUI@@3P6AXKKKPA_WK@ZA		; XNotifyQueueUI
PUBLIC	?g_mb_result@@3U_MESSAGEBOX_RESULT@@A		; g_mb_result
PUBLIC	?stat@@3U_MEMORYSTATUS@@A			; stat
PUBLIC	?addy2@@3PAKA					; addy2
PUBLIC	?MemStat@@3U_DM_MEMORY_STATISTICS@@A		; MemStat
PUBLIC	?DmSetMemoryD@@3P6AJPAXKPBXPAK@ZA		; DmSetMemoryD
PUBLIC	?addy4@@3PAKA					; addy4
PUBLIC	?g_pp@@3U_D3DPRESENT_PARAMETERS_@@A		; g_pp
PUBLIC	?MYPtr1@@3KA					; MYPtr1
PUBLIC	?DmGetMemoryD@@3P6AJPBXKPAXPAK@ZA		; DmGetMemoryD
PUBLIC	?retaddy1@@3PAGA				; retaddy1
PUBLIC	?sine_data@@3PAUpoint_vertex@@A			; sine_data
PUBLIC	?info@@3KA					; info
PUBLIC	?Userid@@3PADA					; Userid
PUBLIC	?username@@3KA					; username
PUBLIC	?retaddy2@@3PAGA				; retaddy2
PUBLIC	?XamGetCurrentTitleId@@3P6AIXZA			; XamGetCurrentTitleId
PUBLIC	?g_xol@@3U_XOVERLAPPED@@A			; g_xol
PUBLIC	__C1_11886
PUBLIC	D3DPRIMITIVEVERTEXCOUNT
PUBLIC	D3DTESSPRIMITIVEVERTEXCOUNT
PUBLIC	?g_XMSinCoefficients0@@3UXMVECTORF32@@B		; g_XMSinCoefficients0
PUBLIC	?g_XMSinCoefficients1@@3UXMVECTORF32@@B		; g_XMSinCoefficients1
PUBLIC	?g_XMSinCoefficients2@@3UXMVECTORF32@@B		; g_XMSinCoefficients2
PUBLIC	?g_XMCosCoefficients0@@3UXMVECTORF32@@B		; g_XMCosCoefficients0
PUBLIC	?g_XMCosCoefficients1@@3UXMVECTORF32@@B		; g_XMCosCoefficients1
PUBLIC	?g_XMCosCoefficients2@@3UXMVECTORF32@@B		; g_XMCosCoefficients2
PUBLIC	?g_XMTanCoefficients0@@3UXMVECTORF32@@B		; g_XMTanCoefficients0
PUBLIC	?g_XMTanCoefficients1@@3UXMVECTORF32@@B		; g_XMTanCoefficients1
PUBLIC	?g_XMTanCoefficients2@@3UXMVECTORF32@@B		; g_XMTanCoefficients2
PUBLIC	?g_XMASinCoefficients0@@3UXMVECTORF32@@B	; g_XMASinCoefficients0
PUBLIC	?g_XMASinCoefficients1@@3UXMVECTORF32@@B	; g_XMASinCoefficients1
PUBLIC	?g_XMASinCoefficients2@@3UXMVECTORF32@@B	; g_XMASinCoefficients2
PUBLIC	?g_XMATanCoefficients0@@3UXMVECTORF32@@B	; g_XMATanCoefficients0
PUBLIC	?g_XMATanCoefficients1@@3UXMVECTORF32@@B	; g_XMATanCoefficients1
PUBLIC	?g_XMATanCoefficients2@@3UXMVECTORF32@@B	; g_XMATanCoefficients2
PUBLIC	?g_XMSinEstCoefficients@@3UXMVECTORF32@@B	; g_XMSinEstCoefficients
PUBLIC	?g_XMCosEstCoefficients@@3UXMVECTORF32@@B	; g_XMCosEstCoefficients
PUBLIC	?g_XMTanEstCoefficients@@3UXMVECTORF32@@B	; g_XMTanEstCoefficients
PUBLIC	?g_XMATanEstCoefficients@@3UXMVECTORF32@@B	; g_XMATanEstCoefficients
PUBLIC	?g_XMASinEstCoefficients@@3UXMVECTORF32@@B	; g_XMASinEstCoefficients
PUBLIC	?g_XMASinEstConstants@@3UXMVECTORF32@@B		; g_XMASinEstConstants
PUBLIC	?g_XMPiConstants0@@3UXMVECTORF32@@B		; g_XMPiConstants0
PUBLIC	?g_XMIdentityR0@@3UXMVECTORF32@@B		; g_XMIdentityR0
PUBLIC	?g_XMIdentityR1@@3UXMVECTORF32@@B		; g_XMIdentityR1
PUBLIC	?g_XMIdentityR2@@3UXMVECTORF32@@B		; g_XMIdentityR2
PUBLIC	?g_XMIdentityR3@@3UXMVECTORF32@@B		; g_XMIdentityR3
PUBLIC	?g_XMNegIdentityR0@@3UXMVECTORF32@@B		; g_XMNegIdentityR0
PUBLIC	?g_XMNegIdentityR1@@3UXMVECTORF32@@B		; g_XMNegIdentityR1
PUBLIC	?g_XMNegIdentityR2@@3UXMVECTORF32@@B		; g_XMNegIdentityR2
PUBLIC	?g_XMNegIdentityR3@@3UXMVECTORF32@@B		; g_XMNegIdentityR3
PUBLIC	?g_XMNegativeZero@@3UXMVECTORI32@@B		; g_XMNegativeZero
PUBLIC	?g_XMNegate3@@3UXMVECTORI32@@B			; g_XMNegate3
PUBLIC	?g_XMMask3@@3UXMVECTORI32@@B			; g_XMMask3
PUBLIC	?g_XMMaskX@@3UXMVECTORI32@@B			; g_XMMaskX
PUBLIC	?g_XMMaskY@@3UXMVECTORI32@@B			; g_XMMaskY
PUBLIC	?g_XMMaskZ@@3UXMVECTORI32@@B			; g_XMMaskZ
PUBLIC	?g_XMMaskW@@3UXMVECTORI32@@B			; g_XMMaskW
PUBLIC	?g_XMOne@@3UXMVECTORF32@@B			; g_XMOne
PUBLIC	?g_XMOne3@@3UXMVECTORF32@@B			; g_XMOne3
PUBLIC	?g_XMZero@@3UXMVECTORF32@@B			; g_XMZero
PUBLIC	?g_XMNegativeOne@@3UXMVECTORF32@@B		; g_XMNegativeOne
PUBLIC	?g_XMOneHalf@@3UXMVECTORF32@@B			; g_XMOneHalf
PUBLIC	?g_XMNegativeOneHalf@@3UXMVECTORF32@@B		; g_XMNegativeOneHalf
PUBLIC	?g_XMNegativeTwoPi@@3UXMVECTORF32@@B		; g_XMNegativeTwoPi
PUBLIC	?g_XMNegativePi@@3UXMVECTORF32@@B		; g_XMNegativePi
PUBLIC	?g_XMHalfPi@@3UXMVECTORF32@@B			; g_XMHalfPi
PUBLIC	?g_XMPi@@3UXMVECTORF32@@B			; g_XMPi
PUBLIC	?g_XMReciprocalPi@@3UXMVECTORF32@@B		; g_XMReciprocalPi
PUBLIC	?g_XMTwoPi@@3UXMVECTORF32@@B			; g_XMTwoPi
PUBLIC	?g_XMReciprocalTwoPi@@3UXMVECTORF32@@B		; g_XMReciprocalTwoPi
PUBLIC	?g_XMEpsilon@@3UXMVECTORF32@@B			; g_XMEpsilon
PUBLIC	?g_XMInfinity@@3UXMVECTORI32@@B			; g_XMInfinity
PUBLIC	?g_XMQNaN@@3UXMVECTORI32@@B			; g_XMQNaN
PUBLIC	?g_XMQNaNTest@@3UXMVECTORI32@@B			; g_XMQNaNTest
PUBLIC	?g_XMAbsMask@@3UXMVECTORI32@@B			; g_XMAbsMask
PUBLIC	?g_XMFltMin@@3UXMVECTORI32@@B			; g_XMFltMin
PUBLIC	?g_XMFltMax@@3UXMVECTORI32@@B			; g_XMFltMax
PUBLIC	?g_XMNegOneMask@@3UXMVECTORI32@@B		; g_XMNegOneMask
PUBLIC	?g_XMMaskA8R8G8B8@@3UXMVECTORI32@@B		; g_XMMaskA8R8G8B8
PUBLIC	?g_XMFlipA8R8G8B8@@3UXMVECTORI32@@B		; g_XMFlipA8R8G8B8
PUBLIC	?g_XMFixAA8R8G8B8@@3UXMVECTORF32@@B		; g_XMFixAA8R8G8B8
PUBLIC	?g_XMNormalizeA8R8G8B8@@3UXMVECTORF32@@B	; g_XMNormalizeA8R8G8B8
PUBLIC	?g_XMMaskA2B10G10R10@@3UXMVECTORI32@@B		; g_XMMaskA2B10G10R10
PUBLIC	?g_XMFlipA2B10G10R10@@3UXMVECTORI32@@B		; g_XMFlipA2B10G10R10
PUBLIC	?g_XMFixAA2B10G10R10@@3UXMVECTORF32@@B		; g_XMFixAA2B10G10R10
PUBLIC	?g_XMNormalizeA2B10G10R10@@3UXMVECTORF32@@B	; g_XMNormalizeA2B10G10R10
PUBLIC	?g_XMMaskX16Y16@@3UXMVECTORI32@@B		; g_XMMaskX16Y16
PUBLIC	?g_XMFlipX16Y16@@3UXMVECTORI32@@B		; g_XMFlipX16Y16
PUBLIC	?g_XMFixX16Y16@@3UXMVECTORF32@@B		; g_XMFixX16Y16
PUBLIC	?g_XMNormalizeX16Y16@@3UXMVECTORF32@@B		; g_XMNormalizeX16Y16
PUBLIC	?g_XMMaskX16Y16Z16W16@@3UXMVECTORI32@@B		; g_XMMaskX16Y16Z16W16
PUBLIC	?g_XMFlipX16Y16Z16W16@@3UXMVECTORI32@@B		; g_XMFlipX16Y16Z16W16
PUBLIC	?g_XMFixX16Y16Z16W16@@3UXMVECTORF32@@B		; g_XMFixX16Y16Z16W16
PUBLIC	?g_XMNormalizeX16Y16Z16W16@@3UXMVECTORF32@@B	; g_XMNormalizeX16Y16Z16W16
PUBLIC	?g_XMNoFraction@@3UXMVECTORF32@@B		; g_XMNoFraction
PUBLIC	?g_XMMaskByte@@3UXMVECTORI32@@B			; g_XMMaskByte
PUBLIC	?g_XMNegateX@@3UXMVECTORF32@@B			; g_XMNegateX
PUBLIC	?g_XMNegateY@@3UXMVECTORF32@@B			; g_XMNegateY
PUBLIC	?g_XMNegateZ@@3UXMVECTORF32@@B			; g_XMNegateZ
PUBLIC	?g_XMNegateW@@3UXMVECTORF32@@B			; g_XMNegateW
PUBLIC	?g_XMSelect0101@@3UXMVECTORI32@@B		; g_XMSelect0101
PUBLIC	?g_XMSelect1010@@3UXMVECTORI32@@B		; g_XMSelect1010
PUBLIC	?g_XMOneHalfMinusEpsilon@@3UXMVECTORI32@@B	; g_XMOneHalfMinusEpsilon
PUBLIC	?g_XMSelect1000@@3UXMVECTORI32@@B		; g_XMSelect1000
PUBLIC	?g_XMSelect1100@@3UXMVECTORI32@@B		; g_XMSelect1100
PUBLIC	?g_XMSelect1110@@3UXMVECTORI32@@B		; g_XMSelect1110
PUBLIC	?g_XMSwizzleXYXY@@3UXMVECTORI32@@B		; g_XMSwizzleXYXY
PUBLIC	?g_XMSwizzleXYZX@@3UXMVECTORI32@@B		; g_XMSwizzleXYZX
PUBLIC	?g_XMSwizzleYXZW@@3UXMVECTORI32@@B		; g_XMSwizzleYXZW
PUBLIC	?g_XMSwizzleYZXW@@3UXMVECTORI32@@B		; g_XMSwizzleYZXW
PUBLIC	?g_XMSwizzleZXYW@@3UXMVECTORI32@@B		; g_XMSwizzleZXYW
PUBLIC	?g_XMPermute0X0Y1X1Y@@3UXMVECTORI32@@B		; g_XMPermute0X0Y1X1Y
PUBLIC	?g_XMPermute0Z0W1Z1W@@3UXMVECTORI32@@B		; g_XMPermute0Z0W1Z1W
PUBLIC	?g_XMFixupY16@@3UXMVECTORF32@@B			; g_XMFixupY16
PUBLIC	?g_XMFixupY16W16@@3UXMVECTORF32@@B		; g_XMFixupY16W16
PUBLIC	?g_XMFlipY@@3UXMVECTORI32@@B			; g_XMFlipY
PUBLIC	?g_XMFlipZ@@3UXMVECTORI32@@B			; g_XMFlipZ
PUBLIC	?g_XMFlipW@@3UXMVECTORI32@@B			; g_XMFlipW
PUBLIC	?g_XMFlipYZ@@3UXMVECTORI32@@B			; g_XMFlipYZ
PUBLIC	?g_XMFlipZW@@3UXMVECTORI32@@B			; g_XMFlipZW
PUBLIC	?g_XMFlipYW@@3UXMVECTORI32@@B			; g_XMFlipYW
PUBLIC	?g_XMMaskHenD3@@3UXMVECTORI32@@B		; g_XMMaskHenD3
PUBLIC	?g_XMMaskDHen3@@3UXMVECTORI32@@B		; g_XMMaskDHen3
PUBLIC	?g_XMAddUHenD3@@3UXMVECTORF32@@B		; g_XMAddUHenD3
PUBLIC	?g_XMAddHenD3@@3UXMVECTORF32@@B			; g_XMAddHenD3
PUBLIC	?g_XMAddDHen3@@3UXMVECTORF32@@B			; g_XMAddDHen3
PUBLIC	?g_XMMulHenD3@@3UXMVECTORF32@@B			; g_XMMulHenD3
PUBLIC	?g_XMMulDHen3@@3UXMVECTORF32@@B			; g_XMMulDHen3
PUBLIC	?g_XMXorHenD3@@3UXMVECTORI32@@B			; g_XMXorHenD3
PUBLIC	?g_XMXorDHen3@@3UXMVECTORI32@@B			; g_XMXorDHen3
PUBLIC	?g_XMMaskIco4@@3UXMVECTORI32@@B			; g_XMMaskIco4
PUBLIC	?g_XMXorXIco4@@3UXMVECTORI32@@B			; g_XMXorXIco4
PUBLIC	?g_XMXorIco4@@3UXMVECTORI32@@B			; g_XMXorIco4
PUBLIC	?g_XMAddXIco4@@3UXMVECTORF32@@B			; g_XMAddXIco4
PUBLIC	?g_XMAddUIco4@@3UXMVECTORF32@@B			; g_XMAddUIco4
PUBLIC	?g_XMAddIco4@@3UXMVECTORF32@@B			; g_XMAddIco4
PUBLIC	?g_XMMulIco4@@3UXMVECTORF32@@B			; g_XMMulIco4
PUBLIC	?g_XMMaskDec4@@3UXMVECTORI32@@B			; g_XMMaskDec4
PUBLIC	?g_XMXorDec4@@3UXMVECTORI32@@B			; g_XMXorDec4
PUBLIC	?g_XMAddUDec4@@3UXMVECTORF32@@B			; g_XMAddUDec4
PUBLIC	?g_XMAddDec4@@3UXMVECTORF32@@B			; g_XMAddDec4
PUBLIC	?g_XMMulDec4@@3UXMVECTORF32@@B			; g_XMMulDec4
PUBLIC	?g_XMMaskByte4@@3UXMVECTORI32@@B		; g_XMMaskByte4
PUBLIC	?g_XMXorByte4@@3UXMVECTORI32@@B			; g_XMXorByte4
PUBLIC	?g_XMAddByte4@@3UXMVECTORF32@@B			; g_XMAddByte4
PUBLIC	?g_XMFixUnsigned@@3UXMVECTORF32@@B		; g_XMFixUnsigned
PUBLIC	?g_XMMaxInt@@3UXMVECTORF32@@B			; g_XMMaxInt
PUBLIC	?g_XMMaxUInt@@3UXMVECTORF32@@B			; g_XMMaxUInt
PUBLIC	?g_XMUnsignedFix@@3UXMVECTORF32@@B		; g_XMUnsignedFix
PUBLIC	?start1@@3KA					; start1
PUBLIC	?InfHealth@@3_NA				; InfHealth
PUBLIC	?InfHealth2@@3_NA				; InfHealth2
PUBLIC	?InfHealthZOM@@3_NA				; InfHealthZOM
PUBLIC	?InfArmor@@3_NA					; InfArmor
PUBLIC	?InfStamina@@3_NA				; InfStamina
PUBLIC	?Max_XP@@3_NA					; Max_XP
PUBLIC	?InfRage@@3_NA					; InfRage
PUBLIC	?InfAmmo@@3_NA					; InfAmmo
PUBLIC	?InfAmmoZom@@3_NA				; InfAmmoZom
PUBLIC	?InfGrenade@@3_NA				; InfGrenade
PUBLIC	?InfItems@@3_NA					; InfItems
PUBLIC	?item@@3_NA					; item
PUBLIC	?Max_Cash@@3_NA					; Max_Cash
PUBLIC	?InfCash@@3_NA					; InfCash
PUBLIC	?maxcashzm@@3_NA				; maxcashzm
PUBLIC	?InfGold@@3_NA					; InfGold
PUBLIC	?MoneyMOD@@3_NA					; MoneyMOD
PUBLIC	?MoneyMOD1@@3_NA				; MoneyMOD1
PUBLIC	?OneHitKo@@3_NA					; OneHitKo
PUBLIC	?DontDie@@3_NA					; DontDie
PUBLIC	?NOAmmo@@3_NA					; NOAmmo
PUBLIC	?NoWeight@@3_NA					; NoWeight
PUBLIC	?InfLight@@3_NA					; InfLight
PUBLIC	?InfScore@@3_NA					; InfScore
PUBLIC	?InfSeal@@3_NA					; InfSeal
PUBLIC	?Unbreakable@@3_NA				; Unbreakable
PUBLIC	?InfSkill@@3_NA					; InfSkill
PUBLIC	?InfSpecial@@3_NA				; InfSpecial
PUBLIC	?InfAbility@@3_NA				; InfAbility
PUBLIC	?InfFocus@@3_NA					; InfFocus
PUBLIC	?killstreaks@@3_NA				; killstreaks
PUBLIC	?InfTimer@@3_NA					; InfTimer
PUBLIC	?ALLCheats@@3_NA				; ALLCheats
PUBLIC	?ALLCheats1@@3_NA				; ALLCheats1
PUBLIC	?ALLCheats2@@3_NA				; ALLCheats2
PUBLIC	?CheatXX@@3_NA					; CheatXX
PUBLIC	?CheatLB@@3_NA					; CheatLB
PUBLIC	?CheatYY@@3_NA					; CheatYY
PUBLIC	?CheatRB@@3_NA					; CheatRB
PUBLIC	?CheatRT@@3_NA					; CheatRT
PUBLIC	?CheatLT@@3_NA					; CheatLT
PUBLIC	?CheatDU@@3_NA					; CheatDU
PUBLIC	?CheatDL@@3_NA					; CheatDL
PUBLIC	?CheatDR@@3_NA					; CheatDR
PUBLIC	?HooksSet@@3_NA					; HooksSet
PUBLIC	?SetAddr@@3_NA					; SetAddr
PUBLIC	?Spammer@@3_NA					; Spammer
PUBLIC	?NOPThis@@3KA					; NOPThis
PUBLIC	?Max_IT@@3KA					; Max_IT
PUBLIC	?Li_r11_Max@@3KA				; Li_r11_Max
PUBLIC	?Li_r11_999@@3KA				; Li_r11_999
PUBLIC	?Li_r11_99@@3KA					; Li_r11_99
PUBLIC	?Li_r11_Nil@@3KA				; Li_r11_Nil
PUBLIC	?Addi_r11_FFFF@@3KA				; Addi_r11_FFFF
PUBLIC	?Addi_r11_nil@@3KA				; Addi_r11_nil
PUBLIC	?Addi_r11_1@@3KA				; Addi_r11_1
PUBLIC	?Addi_r9_99@@3KA				; Addi_r9_99
PUBLIC	?BootInfo@@3KA					; BootInfo
PUBLIC	?g_strButtons@@3PAPB_WA				; g_strButtons
PUBLIC	?Prompt@@3KA					; Prompt
PUBLIC	?KrnlType@@3KA					; KrnlType
PUBLIC	?btnOk@@3PAPB_WA				; btnOk
PUBLIC	?g_titleID@@3IA					; g_titleID
PUBLIC	?addr_ammo15@@3KA				; addr_ammo15
PUBLIC	?Timer1_addr@@3KA				; Timer1_addr
PUBLIC	?Timer2_addr@@3KA				; Timer2_addr
PUBLIC	?Ammo_On@@3KA					; Ammo_On
PUBLIC	?Ammo_off@@3KA					; Ammo_off
PUBLIC	?XValue@@3MA					; XValue
PUBLIC	?ZValue@@3MA					; ZValue
PUBLIC	?firstrun@@3_NA					; firstrun
PUBLIC	?g_app_name@@3PBDB				; g_app_name
PUBLIC	?g_app_done@@3_NA				; g_app_done
PUBLIC	?g_d3d_device@@3PAUD3DDevice@@A			; g_d3d_device
PUBLIC	?random_mode@@3_NA				; random_mode
PUBLIC	?hTh01@@3PAXA					; hTh01
PUBLIC	?hThId01@@3KA					; hThId01
PUBLIC	?dwPlayerIndex@@3KA				; dwPlayerIndex
PUBLIC	?g_killThread@@3HA				; g_killThread
PUBLIC	szModuleName
	.bss
?MYPtr2@@3KA DD	01H DUP (?)				; MYPtr2
?MYPtr3@@3KA DD	01H DUP (?)				; MYPtr3
?hThreadId@@3KA DD 01H DUP (?)				; hThreadId
?random_data@@3PAUpoint_vertex@@A DB 03200H DUP (?)	; random_data
?hThread@@3PAXA DD 01H DUP (?)				; hThread
?g_ettr@@3U_EX_TITLE_TERMINATE_REGISTRATION@@A DB 010H DUP (?) ; g_ettr
?state@@3U_XINPUT_STATE@@A DB 010H DUP (?)		; state
?cavedata@@3PAKA DD 04H DUP (?)				; cavedata
?Static_Menu@@3P6AXXZA DD 01H DUP (?)			; Static_Menu
?addy3@@3PAKA DD 01H DUP (?)				; addy3
?addy1@@3PAKA DD 01H DUP (?)				; addy1
?XNotifyQueueUI@@3P6AXKKKPA_WK@ZA DD 01H DUP (?)	; XNotifyQueueUI
?g_mb_result@@3U_MESSAGEBOX_RESULT@@A DQ 01H DUP (?)	; g_mb_result
?stat@@3U_MEMORYSTATUS@@A DB 020H DUP (?)		; stat
?addy2@@3PAKA DD 01H DUP (?)				; addy2
?MemStat@@3U_DM_MEMORY_STATISTICS@@A DB 030H DUP (?)	; MemStat
?DmSetMemoryD@@3P6AJPAXKPBXPAK@ZA DD 01H DUP (?)	; DmSetMemoryD
?addy4@@3PAKA DD 01H DUP (?)				; addy4
?g_pp@@3U_D3DPRESENT_PARAMETERS_@@A DB 07cH DUP (?)	; g_pp
?MYPtr1@@3KA DD	01H DUP (?)				; MYPtr1
?DmGetMemoryD@@3P6AJPBXKPAXPAK@ZA DD 01H DUP (?)	; DmGetMemoryD
?retaddy1@@3PAGA DD 01H DUP (?)				; retaddy1
?sine_data@@3PAUpoint_vertex@@A DB 03200H DUP (?)	; sine_data
?info@@3KA DD	01H DUP (?)				; info
?Userid@@3PADA DD 01H DUP (?)				; Userid
?username@@3KA DD 01H DUP (?)				; username
?retaddy2@@3PAGA DD 01H DUP (?)				; retaddy2
?XamGetCurrentTitleId@@3P6AIXZA DD 01H DUP (?)		; XamGetCurrentTitleId
?g_xol@@3U_XOVERLAPPED@@A DB 01cH DUP (?)		; g_xol
?InfHealth@@3_NA DB 01H DUP (?)				; InfHealth
	ALIGN	4

?InfHealth2@@3_NA DB 01H DUP (?)			; InfHealth2
	ALIGN	4

?InfHealthZOM@@3_NA DB 01H DUP (?)			; InfHealthZOM
	ALIGN	4

?InfArmor@@3_NA DB 01H DUP (?)				; InfArmor
	ALIGN	4

?InfStamina@@3_NA DB 01H DUP (?)			; InfStamina
	ALIGN	4

?Max_XP@@3_NA DB 01H DUP (?)				; Max_XP
	ALIGN	4

?InfRage@@3_NA DB 01H DUP (?)				; InfRage
	ALIGN	4

?InfAmmo@@3_NA DB 01H DUP (?)				; InfAmmo
	ALIGN	4

?InfAmmoZom@@3_NA DB 01H DUP (?)			; InfAmmoZom
	ALIGN	4

?InfGrenade@@3_NA DB 01H DUP (?)			; InfGrenade
	ALIGN	4

?InfItems@@3_NA DB 01H DUP (?)				; InfItems
	ALIGN	4

?item@@3_NA DB	01H DUP (?)				; item
	ALIGN	4

?Max_Cash@@3_NA DB 01H DUP (?)				; Max_Cash
	ALIGN	4

?InfCash@@3_NA DB 01H DUP (?)				; InfCash
	ALIGN	4

?maxcashzm@@3_NA DB 01H DUP (?)				; maxcashzm
	ALIGN	4

?InfGold@@3_NA DB 01H DUP (?)				; InfGold
	ALIGN	4

?MoneyMOD@@3_NA DB 01H DUP (?)				; MoneyMOD
	ALIGN	4

?MoneyMOD1@@3_NA DB 01H DUP (?)				; MoneyMOD1
	ALIGN	4

?OneHitKo@@3_NA DB 01H DUP (?)				; OneHitKo
	ALIGN	4

?DontDie@@3_NA DB 01H DUP (?)				; DontDie
	ALIGN	4

?NOAmmo@@3_NA DB 01H DUP (?)				; NOAmmo
	ALIGN	4

?NoWeight@@3_NA DB 01H DUP (?)				; NoWeight
	ALIGN	4

?InfLight@@3_NA DB 01H DUP (?)				; InfLight
	ALIGN	4

?InfScore@@3_NA DB 01H DUP (?)				; InfScore
	ALIGN	4

?InfSeal@@3_NA DB 01H DUP (?)				; InfSeal
	ALIGN	4

?Unbreakable@@3_NA DB 01H DUP (?)			; Unbreakable
	ALIGN	4

?InfSkill@@3_NA DB 01H DUP (?)				; InfSkill
	ALIGN	4

?InfSpecial@@3_NA DB 01H DUP (?)			; InfSpecial
	ALIGN	4

?InfAbility@@3_NA DB 01H DUP (?)			; InfAbility
	ALIGN	4

?InfFocus@@3_NA DB 01H DUP (?)				; InfFocus
	ALIGN	4

?killstreaks@@3_NA DB 01H DUP (?)			; killstreaks
	ALIGN	4

?InfTimer@@3_NA DB 01H DUP (?)				; InfTimer
	ALIGN	4

?ALLCheats@@3_NA DB 01H DUP (?)				; ALLCheats
	ALIGN	4

?ALLCheats1@@3_NA DB 01H DUP (?)			; ALLCheats1
	ALIGN	4

?ALLCheats2@@3_NA DB 01H DUP (?)			; ALLCheats2
	ALIGN	4

?CheatXX@@3_NA DB 01H DUP (?)				; CheatXX
	ALIGN	4

?CheatLB@@3_NA DB 01H DUP (?)				; CheatLB
	ALIGN	4

?CheatYY@@3_NA DB 01H DUP (?)				; CheatYY
	ALIGN	4

?CheatRB@@3_NA DB 01H DUP (?)				; CheatRB
	ALIGN	4

?CheatRT@@3_NA DB 01H DUP (?)				; CheatRT
	ALIGN	4

?CheatLT@@3_NA DB 01H DUP (?)				; CheatLT
	ALIGN	4

?CheatDU@@3_NA DB 01H DUP (?)				; CheatDU
	ALIGN	4

?CheatDL@@3_NA DB 01H DUP (?)				; CheatDL
	ALIGN	4

?CheatDR@@3_NA DB 01H DUP (?)				; CheatDR
	ALIGN	4

staticcode DB	01H DUP (?)
	ALIGN	4

?HooksSet@@3_NA DB 01H DUP (?)				; HooksSet
	ALIGN	4

?SetAddr@@3_NA DB 01H DUP (?)				; SetAddr
	ALIGN	4

?Spammer@@3_NA DB 01H DUP (?)				; Spammer
	ALIGN	4

?BootInfo@@3KA DD 01H DUP (?)				; BootInfo
?KrnlType@@3KA DD 01H DUP (?)				; KrnlType
?ZValue@@3MA DD	01H DUP (?)				; ZValue
?g_app_done@@3_NA DB 01H DUP (?)			; g_app_done
	ALIGN	4

?g_d3d_device@@3PAUD3DDevice@@A DD 01H DUP (?)		; g_d3d_device
?hTh01@@3PAXA DD 01H DUP (?)				; hTh01
?hThId01@@3KA DD 01H DUP (?)				; hThId01
?dwPlayerIndex@@3KA DD 01H DUP (?)			; dwPlayerIndex
?g_killThread@@3HA DD 01H DUP (?)			; g_killThread
	.rdata
szModuleName DB	'Trainer.dll', 00H
;	COMDAT ??_C@_0BA@LMBLDOEH@Plotting?5Points?$AA@
.rdata	SEGMENT
??_C@_0BA@LMBLDOEH@Plotting?5Points?$AA@ DB 'Plotting Points', 00H ; `string'
;	COMDAT ??_C@_15OIFBPDOF@O?$AAK?$AA?$AA?$AA@
.rdata	SEGMENT
??_C@_15OIFBPDOF@O?$AAK?$AA?$AA?$AA@ DB 00H, 'O', 00H, 'K', 00H, 00H ; `string'
;	COMDAT ??_C@_1BC@GOAHBJBA@C?$AAo?$AAn?$AAt?$AAi?$AAn?$AAu?$AAe?$AA?$AA?$AA@
.rdata	SEGMENT
??_C@_1BC@GOAHBJBA@C?$AAo?$AAn?$AAt?$AAi?$AAn?$AAu?$AAe?$AA?$AA?$AA@ DB 00H
	DB	'C', 00H, 'o', 00H, 'n', 00H, 't', 00H, 'i', 00H, 'n', 00H, 'u'
	DB	00H, 'e', 00H, 00H				; `string'
	.data
?start1@@3KA DD	082H					; start1
?NOPThis@@3KA DD 060000000H				; NOPThis
?Max_IT@@3KA DD	03b9ac9ffH				; Max_IT
?Li_r11_Max@@3KA DD 039607530H				; Li_r11_Max
?Li_r11_999@@3KA DD 0396003e7H				; Li_r11_999
?Li_r11_99@@3KA DD 039600063H				; Li_r11_99
?Li_r11_Nil@@3KA DD 039600000H				; Li_r11_Nil
?Addi_r11_FFFF@@3KA DD 0396bffffH			; Addi_r11_FFFF
?Addi_r11_nil@@3KA DD 0396b0000H			; Addi_r11_nil
?Addi_r11_1@@3KA DD 0396b0001H				; Addi_r11_1
?Addi_r9_99@@3KA DD 039290063H				; Addi_r9_99
?g_strButtons@@3PAPB_WA DD ??_C@_1BC@GOAHBJBA@C?$AAo?$AAn?$AAt?$AAi?$AAn?$AAu?$AAe?$AA?$AA?$AA@ ; g_strButtons
?Prompt@@3KA DD	09999H					; Prompt
?btnOk@@3PAPB_WA DD ??_C@_15OIFBPDOF@O?$AAK?$AA?$AA?$AA@ ; btnOk
?g_titleID@@3IA DD 0494707d1H				; g_titleID
?addr_ammo15@@3KA DD 08244e330H				; addr_ammo15
?Timer1_addr@@3KA DD 082451ba8H				; Timer1_addr
?Timer2_addr@@3KA DD 0822ac200H				; Timer2_addr
?Ammo_On@@3KA DD 0394a7530H				; Ammo_On
?Ammo_off@@3KA DD 0396bffffH				; Ammo_off
?XValue@@3MA DD	043480000r			; 200	; XValue
?firstrun@@3_NA DB 01H					; firstrun
?random_mode@@3_NA DB 01H				; random_mode
	ORG $+2
?g_app_name@@3PBDB DD ??_C@_0BA@LMBLDOEH@Plotting?5Points?$AA@ ; g_app_name
;	COMDAT ?g_XMUnsignedFix@@3UXMVECTORF32@@B
.rdata	SEGMENT
?g_XMUnsignedFix@@3UXMVECTORF32@@B DD 04f000000r ; 2.14748e+009 ; g_XMUnsignedFix
	DD	04f000000r			; 2.14748e+009
	DD	04f000000r			; 2.14748e+009
	DD	04f000000r			; 2.14748e+009
;	COMDAT ?g_XMMaxUInt@@3UXMVECTORF32@@B
.rdata	SEGMENT
?g_XMMaxUInt@@3UXMVECTORF32@@B DD 04f7fffffr	; 4.29497e+009 ; g_XMMaxUInt
	DD	04f7fffffr			; 4.29497e+009
	DD	04f7fffffr			; 4.29497e+009
	DD	04f7fffffr			; 4.29497e+009
;	COMDAT ?g_XMMaxInt@@3UXMVECTORF32@@B
.rdata	SEGMENT
?g_XMMaxInt@@3UXMVECTORF32@@B DD 04effffffr	; 2.14748e+009 ; g_XMMaxInt
	DD	04effffffr			; 2.14748e+009
	DD	04effffffr			; 2.14748e+009
	DD	04effffffr			; 2.14748e+009
;	COMDAT ?g_XMFixUnsigned@@3UXMVECTORF32@@B
.rdata	SEGMENT
?g_XMFixUnsigned@@3UXMVECTORF32@@B DD 04f000000r ; 2.14748e+009 ; g_XMFixUnsigned
	DD	04f000000r			; 2.14748e+009
	DD	04f000000r			; 2.14748e+009
	DD	04f000000r			; 2.14748e+009
;	COMDAT ?g_XMAddByte4@@3UXMVECTORF32@@B
.rdata	SEGMENT
?g_XMAddByte4@@3UXMVECTORF32@@B DD 0c3000000r	; -128	; g_XMAddByte4
	DD	0c7000000r			; -32768
	DD	0cb000000r			; -8.38861e+006
	DD	000000000r			; 0
;	COMDAT ?g_XMXorByte4@@3UXMVECTORI32@@B
.rdata	SEGMENT
?g_XMXorByte4@@3UXMVECTORI32@@B DD 080H			; g_XMXorByte4
	DD	08000H
	DD	0800000H
	DD	00H
;	COMDAT ?g_XMMaskByte4@@3UXMVECTORI32@@B
.rdata	SEGMENT
?g_XMMaskByte4@@3UXMVECTORI32@@B DD 0ffH		; g_XMMaskByte4
	DD	0ff00H
	DD	0ff0000H
	DD	0ff000000H
;	COMDAT ?g_XMMulDec4@@3UXMVECTORF32@@B
.rdata	SEGMENT
?g_XMMulDec4@@3UXMVECTORF32@@B DD 03f800000r	; 1	; g_XMMulDec4
	DD	03a800000r			; 0.000976563
	DD	035800000r			; 9.53674e-007
	DD	030800000r			; 9.31323e-010
;	COMDAT ?g_XMAddDec4@@3UXMVECTORF32@@B
.rdata	SEGMENT
?g_XMAddDec4@@3UXMVECTORF32@@B DD 0c4000000r	; -512	; g_XMAddDec4
	DD	0c9000000r			; -524288
	DD	0ce000000r			; -5.36871e+008
	DD	000000000r			; 0
;	COMDAT ?g_XMAddUDec4@@3UXMVECTORF32@@B
.rdata	SEGMENT
?g_XMAddUDec4@@3UXMVECTORF32@@B DD 000000000r	; 0	; g_XMAddUDec4
	DD	000000000r			; 0
	DD	000000000r			; 0
	DD	04f000000r			; 2.14748e+009
;	COMDAT ?g_XMXorDec4@@3UXMVECTORI32@@B
.rdata	SEGMENT
?g_XMXorDec4@@3UXMVECTORI32@@B DD 0200H			; g_XMXorDec4
	DD	080000H
	DD	020000000H
	DD	00H
;	COMDAT ?g_XMMaskDec4@@3UXMVECTORI32@@B
.rdata	SEGMENT
?g_XMMaskDec4@@3UXMVECTORI32@@B DD 03ffH		; g_XMMaskDec4
	DD	0ffc00H
	DD	03ff00000H
	DD	0c0000000H
;	COMDAT ?g_XMMulIco4@@3UXMVECTORF32@@B
.rdata	SEGMENT
?g_XMMulIco4@@3UXMVECTORF32@@B DD 03f800000r	; 1	; g_XMMulIco4
	DD	039800000r			; 0.000244141
	DD	03f800000r			; 1
	DD	031800000r			; 3.72529e-009
;	COMDAT ?g_XMAddIco4@@3UXMVECTORF32@@B
.rdata	SEGMENT
?g_XMAddIco4@@3UXMVECTORF32@@B DD 0c9000000r	; -524288 ; g_XMAddIco4
	DD	000000000r			; 0
	DD	0c9000000r			; -524288
	DD	000000000r			; 0
;	COMDAT ?g_XMAddUIco4@@3UXMVECTORF32@@B
.rdata	SEGMENT
?g_XMAddUIco4@@3UXMVECTORF32@@B DD 000000000r	; 0	; g_XMAddUIco4
	DD	04f000000r			; 2.14748e+009
	DD	000000000r			; 0
	DD	04f000000r			; 2.14748e+009
;	COMDAT ?g_XMAddXIco4@@3UXMVECTORF32@@B
.rdata	SEGMENT
?g_XMAddXIco4@@3UXMVECTORF32@@B DD 0c9000000r	; -524288 ; g_XMAddXIco4
	DD	000000000r			; 0
	DD	0c9000000r			; -524288
	DD	04f000000r			; 2.14748e+009
;	COMDAT ?g_XMXorIco4@@3UXMVECTORI32@@B
.rdata	SEGMENT
?g_XMXorIco4@@3UXMVECTORI32@@B DD 080000H		; g_XMXorIco4
	DD	00H
	DD	080000H
	DD	00H
;	COMDAT ?g_XMXorXIco4@@3UXMVECTORI32@@B
.rdata	SEGMENT
?g_XMXorXIco4@@3UXMVECTORI32@@B DD 080000H		; g_XMXorXIco4
	DD	00H
	DD	080000H
	DD	080000000H
;	COMDAT ?g_XMMaskIco4@@3UXMVECTORI32@@B
.rdata	SEGMENT
?g_XMMaskIco4@@3UXMVECTORI32@@B DD 0fffffH		; g_XMMaskIco4
	DD	0fffff000H
	DD	0fffffH
	DD	0f0000000H
;	COMDAT ?g_XMXorDHen3@@3UXMVECTORI32@@B
.rdata	SEGMENT
?g_XMXorDHen3@@3UXMVECTORI32@@B DD 0200H		; g_XMXorDHen3
	DD	0100000H
	DD	00H
	DD	00H
;	COMDAT ?g_XMXorHenD3@@3UXMVECTORI32@@B
.rdata	SEGMENT
?g_XMXorHenD3@@3UXMVECTORI32@@B DD 0400H		; g_XMXorHenD3
	DD	0200000H
	DD	00H
	DD	00H
;	COMDAT ?g_XMMulDHen3@@3UXMVECTORF32@@B
.rdata	SEGMENT
?g_XMMulDHen3@@3UXMVECTORF32@@B DD 03f800000r	; 1	; g_XMMulDHen3
	DD	03a800000r			; 0.000976563
	DD	035000000r			; 4.76837e-007
	DD	000000000r			; 0
;	COMDAT ?g_XMMulHenD3@@3UXMVECTORF32@@B
.rdata	SEGMENT
?g_XMMulHenD3@@3UXMVECTORF32@@B DD 03f800000r	; 1	; g_XMMulHenD3
	DD	03a000000r			; 0.000488281
	DD	034800000r			; 2.38419e-007
	DD	000000000r			; 0
;	COMDAT ?g_XMAddDHen3@@3UXMVECTORF32@@B
.rdata	SEGMENT
?g_XMAddDHen3@@3UXMVECTORF32@@B DD 0c4000000r	; -512	; g_XMAddDHen3
	DD	0c9800000r			; -1.04858e+006
	DD	000000000r			; 0
	DD	000000000r			; 0
;	COMDAT ?g_XMAddHenD3@@3UXMVECTORF32@@B
.rdata	SEGMENT
?g_XMAddHenD3@@3UXMVECTORF32@@B DD 0c4800000r	; -1024	; g_XMAddHenD3
	DD	0ca000000r			; -2.09715e+006
	DD	000000000r			; 0
	DD	000000000r			; 0
;	COMDAT ?g_XMAddUHenD3@@3UXMVECTORF32@@B
.rdata	SEGMENT
?g_XMAddUHenD3@@3UXMVECTORF32@@B DD 000000000r	; 0	; g_XMAddUHenD3
	DD	000000000r			; 0
	DD	04f000000r			; 2.14748e+009
	DD	000000000r			; 0
;	COMDAT ?g_XMMaskDHen3@@3UXMVECTORI32@@B
.rdata	SEGMENT
?g_XMMaskDHen3@@3UXMVECTORI32@@B DD 03ffH		; g_XMMaskDHen3
	DD	01ffc00H
	DD	0ffe00000H
	DD	00H
;	COMDAT ?g_XMMaskHenD3@@3UXMVECTORI32@@B
.rdata	SEGMENT
?g_XMMaskHenD3@@3UXMVECTORI32@@B DD 07ffH		; g_XMMaskHenD3
	DD	03ff800H
	DD	0ffc00000H
	DD	00H
;	COMDAT ?g_XMFlipYW@@3UXMVECTORI32@@B
.rdata	SEGMENT
?g_XMFlipYW@@3UXMVECTORI32@@B DD 00H			; g_XMFlipYW
	DD	080000000H
	DD	00H
	DD	080000000H
;	COMDAT ?g_XMFlipZW@@3UXMVECTORI32@@B
.rdata	SEGMENT
?g_XMFlipZW@@3UXMVECTORI32@@B DD 00H			; g_XMFlipZW
	DD	00H
	DD	080000000H
	DD	080000000H
;	COMDAT ?g_XMFlipYZ@@3UXMVECTORI32@@B
.rdata	SEGMENT
?g_XMFlipYZ@@3UXMVECTORI32@@B DD 00H			; g_XMFlipYZ
	DD	080000000H
	DD	080000000H
	DD	00H
;	COMDAT ?g_XMFlipW@@3UXMVECTORI32@@B
.rdata	SEGMENT
?g_XMFlipW@@3UXMVECTORI32@@B DD 00H			; g_XMFlipW
	DD	00H
	DD	00H
	DD	080000000H
;	COMDAT ?g_XMFlipZ@@3UXMVECTORI32@@B
.rdata	SEGMENT
?g_XMFlipZ@@3UXMVECTORI32@@B DD 00H			; g_XMFlipZ
	DD	00H
	DD	080000000H
	DD	00H
;	COMDAT ?g_XMFlipY@@3UXMVECTORI32@@B
.rdata	SEGMENT
?g_XMFlipY@@3UXMVECTORI32@@B DD 00H			; g_XMFlipY
	DD	080000000H
	DD	00H
	DD	00H
;	COMDAT ?g_XMFixupY16W16@@3UXMVECTORF32@@B
.rdata	SEGMENT
?g_XMFixupY16W16@@3UXMVECTORF32@@B DD 03f800000r ; 1	; g_XMFixupY16W16
	DD	03f800000r			; 1
	DD	037800000r			; 1.52588e-005
	DD	037800000r			; 1.52588e-005
;	COMDAT ?g_XMFixupY16@@3UXMVECTORF32@@B
.rdata	SEGMENT
?g_XMFixupY16@@3UXMVECTORF32@@B DD 03f800000r	; 1	; g_XMFixupY16
	DD	037800000r			; 1.52588e-005
	DD	000000000r			; 0
	DD	000000000r			; 0
;	COMDAT ?g_XMPermute0Z0W1Z1W@@3UXMVECTORI32@@B
.rdata	SEGMENT
?g_XMPermute0Z0W1Z1W@@3UXMVECTORI32@@B DD 08090a0bH	; g_XMPermute0Z0W1Z1W
	DD	0c0d0e0fH
	DD	018191a1bH
	DD	01c1d1e1fH
;	COMDAT ?g_XMPermute0X0Y1X1Y@@3UXMVECTORI32@@B
.rdata	SEGMENT
?g_XMPermute0X0Y1X1Y@@3UXMVECTORI32@@B DD 010203H	; g_XMPermute0X0Y1X1Y
	DD	04050607H
	DD	010111213H
	DD	014151617H
;	COMDAT ?g_XMSwizzleZXYW@@3UXMVECTORI32@@B
.rdata	SEGMENT
?g_XMSwizzleZXYW@@3UXMVECTORI32@@B DD 08090a0bH		; g_XMSwizzleZXYW
	DD	010203H
	DD	04050607H
	DD	0c0d0e0fH
;	COMDAT ?g_XMSwizzleYZXW@@3UXMVECTORI32@@B
.rdata	SEGMENT
?g_XMSwizzleYZXW@@3UXMVECTORI32@@B DD 04050607H		; g_XMSwizzleYZXW
	DD	08090a0bH
	DD	010203H
	DD	0c0d0e0fH
;	COMDAT ?g_XMSwizzleYXZW@@3UXMVECTORI32@@B
.rdata	SEGMENT
?g_XMSwizzleYXZW@@3UXMVECTORI32@@B DD 04050607H		; g_XMSwizzleYXZW
	DD	010203H
	DD	08090a0bH
	DD	0c0d0e0fH
;	COMDAT ?g_XMSwizzleXYZX@@3UXMVECTORI32@@B
.rdata	SEGMENT
?g_XMSwizzleXYZX@@3UXMVECTORI32@@B DD 010203H		; g_XMSwizzleXYZX
	DD	04050607H
	DD	08090a0bH
	DD	010203H
;	COMDAT ?g_XMSwizzleXYXY@@3UXMVECTORI32@@B
.rdata	SEGMENT
?g_XMSwizzleXYXY@@3UXMVECTORI32@@B DD 010203H		; g_XMSwizzleXYXY
	DD	04050607H
	DD	010203H
	DD	04050607H
;	COMDAT ?g_XMSelect1110@@3UXMVECTORI32@@B
.rdata	SEGMENT
?g_XMSelect1110@@3UXMVECTORI32@@B DD 0ffffffffH		; g_XMSelect1110
	DD	0ffffffffH
	DD	0ffffffffH
	DD	00H
;	COMDAT ?g_XMSelect1100@@3UXMVECTORI32@@B
.rdata	SEGMENT
?g_XMSelect1100@@3UXMVECTORI32@@B DD 0ffffffffH		; g_XMSelect1100
	DD	0ffffffffH
	DD	00H
	DD	00H
;	COMDAT ?g_XMSelect1000@@3UXMVECTORI32@@B
.rdata	SEGMENT
?g_XMSelect1000@@3UXMVECTORI32@@B DD 0ffffffffH		; g_XMSelect1000
	DD	00H
	DD	00H
	DD	00H
;	COMDAT ?g_XMOneHalfMinusEpsilon@@3UXMVECTORI32@@B
.rdata	SEGMENT
?g_XMOneHalfMinusEpsilon@@3UXMVECTORI32@@B DD 03efffffdH ; g_XMOneHalfMinusEpsilon
	DD	03efffffdH
	DD	03efffffdH
	DD	03efffffdH
;	COMDAT ?g_XMSelect1010@@3UXMVECTORI32@@B
.rdata	SEGMENT
?g_XMSelect1010@@3UXMVECTORI32@@B DD 0ffffffffH		; g_XMSelect1010
	DD	00H
	DD	0ffffffffH
	DD	00H
;	COMDAT ?g_XMSelect0101@@3UXMVECTORI32@@B
.rdata	SEGMENT
?g_XMSelect0101@@3UXMVECTORI32@@B DD 00H		; g_XMSelect0101
	DD	0ffffffffH
	DD	00H
	DD	0ffffffffH
;	COMDAT ?g_XMNegateW@@3UXMVECTORF32@@B
.rdata	SEGMENT
?g_XMNegateW@@3UXMVECTORF32@@B DD 03f800000r	; 1	; g_XMNegateW
	DD	03f800000r			; 1
	DD	03f800000r			; 1
	DD	0bf800000r			; -1
;	COMDAT ?g_XMNegateZ@@3UXMVECTORF32@@B
.rdata	SEGMENT
?g_XMNegateZ@@3UXMVECTORF32@@B DD 03f800000r	; 1	; g_XMNegateZ
	DD	03f800000r			; 1
	DD	0bf800000r			; -1
	DD	03f800000r			; 1
;	COMDAT ?g_XMNegateY@@3UXMVECTORF32@@B
.rdata	SEGMENT
?g_XMNegateY@@3UXMVECTORF32@@B DD 03f800000r	; 1	; g_XMNegateY
	DD	0bf800000r			; -1
	DD	03f800000r			; 1
	DD	03f800000r			; 1
;	COMDAT ?g_XMNegateX@@3UXMVECTORF32@@B
.rdata	SEGMENT
?g_XMNegateX@@3UXMVECTORF32@@B DD 0bf800000r	; -1	; g_XMNegateX
	DD	03f800000r			; 1
	DD	03f800000r			; 1
	DD	03f800000r			; 1
;	COMDAT ?g_XMMaskByte@@3UXMVECTORI32@@B
.rdata	SEGMENT
?g_XMMaskByte@@3UXMVECTORI32@@B DD 0ffH			; g_XMMaskByte
	DD	0ffH
	DD	0ffH
	DD	0ffH
;	COMDAT ?g_XMNoFraction@@3UXMVECTORF32@@B
.rdata	SEGMENT
?g_XMNoFraction@@3UXMVECTORF32@@B DD 04b000000r	; 8.38861e+006 ; g_XMNoFraction
	DD	04b000000r			; 8.38861e+006
	DD	04b000000r			; 8.38861e+006
	DD	04b000000r			; 8.38861e+006
;	COMDAT ?g_XMNormalizeX16Y16Z16W16@@3UXMVECTORF32@@B
.rdata	SEGMENT
?g_XMNormalizeX16Y16Z16W16@@3UXMVECTORF32@@B DD 038000100r ; 3.05185e-005 ; g_XMNormalizeX16Y16Z16W16
	DD	038000100r			; 3.05185e-005
	DD	030000100r			; 4.65675e-010
	DD	030000100r			; 4.65675e-010
;	COMDAT ?g_XMFixX16Y16Z16W16@@3UXMVECTORF32@@B
.rdata	SEGMENT
?g_XMFixX16Y16Z16W16@@3UXMVECTORF32@@B DD 0c7000000r ; -32768 ; g_XMFixX16Y16Z16W16
	DD	0c7000000r			; -32768
	DD	000000000r			; 0
	DD	000000000r			; 0
;	COMDAT ?g_XMFlipX16Y16Z16W16@@3UXMVECTORI32@@B
.rdata	SEGMENT
?g_XMFlipX16Y16Z16W16@@3UXMVECTORI32@@B DD 08000H	; g_XMFlipX16Y16Z16W16
	DD	08000H
	DD	00H
	DD	00H
;	COMDAT ?g_XMMaskX16Y16Z16W16@@3UXMVECTORI32@@B
.rdata	SEGMENT
?g_XMMaskX16Y16Z16W16@@3UXMVECTORI32@@B DD 0ffffH	; g_XMMaskX16Y16Z16W16
	DD	0ffffH
	DD	0ffff0000H
	DD	0ffff0000H
;	COMDAT ?g_XMNormalizeX16Y16@@3UXMVECTORF32@@B
.rdata	SEGMENT
?g_XMNormalizeX16Y16@@3UXMVECTORF32@@B DD 038000100r ; 3.05185e-005 ; g_XMNormalizeX16Y16
	DD	030000100r			; 4.65675e-010
	DD	000000000r			; 0
	DD	000000000r			; 0
;	COMDAT ?g_XMFixX16Y16@@3UXMVECTORF32@@B
.rdata	SEGMENT
?g_XMFixX16Y16@@3UXMVECTORF32@@B DD 0c7000000r	; -32768 ; g_XMFixX16Y16
	DD	000000000r			; 0
	DD	000000000r			; 0
	DD	000000000r			; 0
;	COMDAT ?g_XMFlipX16Y16@@3UXMVECTORI32@@B
.rdata	SEGMENT
?g_XMFlipX16Y16@@3UXMVECTORI32@@B DD 08000H		; g_XMFlipX16Y16
	DD	00H
	DD	00H
	DD	00H
;	COMDAT ?g_XMMaskX16Y16@@3UXMVECTORI32@@B
.rdata	SEGMENT
?g_XMMaskX16Y16@@3UXMVECTORI32@@B DD 0ffffH		; g_XMMaskX16Y16
	DD	0ffff0000H
	DD	00H
	DD	00H
;	COMDAT ?g_XMNormalizeA2B10G10R10@@3UXMVECTORF32@@B
.rdata	SEGMENT
?g_XMNormalizeA2B10G10R10@@3UXMVECTORF32@@B DD 03b004020r ; 0.00195695 ; g_XMNormalizeA2B10G10R10
	DD	036004020r			; 1.91108e-006
	DD	031004020r			; 1.86629e-009
	DD	02faaaaabr			; 3.10441e-010
;	COMDAT ?g_XMFixAA2B10G10R10@@3UXMVECTORF32@@B
.rdata	SEGMENT
?g_XMFixAA2B10G10R10@@3UXMVECTORF32@@B DD 0c4000000r ; -512 ; g_XMFixAA2B10G10R10
	DD	0c9000000r			; -524288
	DD	0ce000000r			; -5.36871e+008
	DD	04f000000r			; 2.14748e+009
;	COMDAT ?g_XMFlipA2B10G10R10@@3UXMVECTORI32@@B
.rdata	SEGMENT
?g_XMFlipA2B10G10R10@@3UXMVECTORI32@@B DD 0200H		; g_XMFlipA2B10G10R10
	DD	080000H
	DD	020000000H
	DD	080000000H
;	COMDAT ?g_XMMaskA2B10G10R10@@3UXMVECTORI32@@B
.rdata	SEGMENT
?g_XMMaskA2B10G10R10@@3UXMVECTORI32@@B DD 03ffH		; g_XMMaskA2B10G10R10
	DD	0ffc00H
	DD	03ff00000H
	DD	0c0000000H
;	COMDAT ?g_XMNormalizeA8R8G8B8@@3UXMVECTORF32@@B
.rdata	SEGMENT
?g_XMNormalizeA8R8G8B8@@3UXMVECTORF32@@B DD 033808081r ; 5.98384e-008 ; g_XMNormalizeA8R8G8B8
	DD	037808081r			; 1.53186e-005
	DD	03b808081r			; 0.00392157
	DD	02f808081r			; 2.33744e-010
;	COMDAT ?g_XMFixAA8R8G8B8@@3UXMVECTORF32@@B
.rdata	SEGMENT
?g_XMFixAA8R8G8B8@@3UXMVECTORF32@@B DD 000000000r ; 0	; g_XMFixAA8R8G8B8
	DD	000000000r			; 0
	DD	000000000r			; 0
	DD	04f000000r			; 2.14748e+009
;	COMDAT ?g_XMFlipA8R8G8B8@@3UXMVECTORI32@@B
.rdata	SEGMENT
?g_XMFlipA8R8G8B8@@3UXMVECTORI32@@B DD 00H		; g_XMFlipA8R8G8B8
	DD	00H
	DD	00H
	DD	080000000H
;	COMDAT ?g_XMMaskA8R8G8B8@@3UXMVECTORI32@@B
.rdata	SEGMENT
?g_XMMaskA8R8G8B8@@3UXMVECTORI32@@B DD 0ff0000H		; g_XMMaskA8R8G8B8
	DD	0ff00H
	DD	0ffH
	DD	0ff000000H
;	COMDAT ?g_XMNegOneMask@@3UXMVECTORI32@@B
.rdata	SEGMENT
?g_XMNegOneMask@@3UXMVECTORI32@@B DD 0ffffffffH		; g_XMNegOneMask
	DD	0ffffffffH
	DD	0ffffffffH
	DD	0ffffffffH
;	COMDAT ?g_XMFltMax@@3UXMVECTORI32@@B
.rdata	SEGMENT
?g_XMFltMax@@3UXMVECTORI32@@B DD 07f7fffffH		; g_XMFltMax
	DD	07f7fffffH
	DD	07f7fffffH
	DD	07f7fffffH
;	COMDAT ?g_XMFltMin@@3UXMVECTORI32@@B
.rdata	SEGMENT
?g_XMFltMin@@3UXMVECTORI32@@B DD 0800000H		; g_XMFltMin
	DD	0800000H
	DD	0800000H
	DD	0800000H
;	COMDAT ?g_XMAbsMask@@3UXMVECTORI32@@B
.rdata	SEGMENT
?g_XMAbsMask@@3UXMVECTORI32@@B DD 07fffffffH		; g_XMAbsMask
	DD	07fffffffH
	DD	07fffffffH
	DD	07fffffffH
;	COMDAT ?g_XMQNaNTest@@3UXMVECTORI32@@B
.rdata	SEGMENT
?g_XMQNaNTest@@3UXMVECTORI32@@B DD 07fffffH		; g_XMQNaNTest
	DD	07fffffH
	DD	07fffffH
	DD	07fffffH
;	COMDAT ?g_XMQNaN@@3UXMVECTORI32@@B
.rdata	SEGMENT
?g_XMQNaN@@3UXMVECTORI32@@B DD 07fc00000H		; g_XMQNaN
	DD	07fc00000H
	DD	07fc00000H
	DD	07fc00000H
;	COMDAT ?g_XMInfinity@@3UXMVECTORI32@@B
.rdata	SEGMENT
?g_XMInfinity@@3UXMVECTORI32@@B DD 07f800000H		; g_XMInfinity
	DD	07f800000H
	DD	07f800000H
	DD	07f800000H
;	COMDAT ?g_XMEpsilon@@3UXMVECTORF32@@B
.rdata	SEGMENT
?g_XMEpsilon@@3UXMVECTORF32@@B DD 034000000r	; 1.19209e-007 ; g_XMEpsilon
	DD	034000000r			; 1.19209e-007
	DD	034000000r			; 1.19209e-007
	DD	034000000r			; 1.19209e-007
;	COMDAT ?g_XMReciprocalTwoPi@@3UXMVECTORF32@@B
.rdata	SEGMENT
?g_XMReciprocalTwoPi@@3UXMVECTORF32@@B DD 03e22f983r ; 0.159155 ; g_XMReciprocalTwoPi
	DD	03e22f983r			; 0.159155
	DD	03e22f983r			; 0.159155
	DD	03e22f983r			; 0.159155
;	COMDAT ?g_XMTwoPi@@3UXMVECTORF32@@B
.rdata	SEGMENT
?g_XMTwoPi@@3UXMVECTORF32@@B DD 040c90fdbr	; 6.28319 ; g_XMTwoPi
	DD	040c90fdbr			; 6.28319
	DD	040c90fdbr			; 6.28319
	DD	040c90fdbr			; 6.28319
;	COMDAT ?g_XMReciprocalPi@@3UXMVECTORF32@@B
.rdata	SEGMENT
?g_XMReciprocalPi@@3UXMVECTORF32@@B DD 03ea2f983r ; 0.31831 ; g_XMReciprocalPi
	DD	03ea2f983r			; 0.31831
	DD	03ea2f983r			; 0.31831
	DD	03ea2f983r			; 0.31831
;	COMDAT ?g_XMPi@@3UXMVECTORF32@@B
.rdata	SEGMENT
?g_XMPi@@3UXMVECTORF32@@B DD 040490fdbr		; 3.14159 ; g_XMPi
	DD	040490fdbr			; 3.14159
	DD	040490fdbr			; 3.14159
	DD	040490fdbr			; 3.14159
;	COMDAT ?g_XMHalfPi@@3UXMVECTORF32@@B
.rdata	SEGMENT
?g_XMHalfPi@@3UXMVECTORF32@@B DD 03fc90fdbr	; 1.5708 ; g_XMHalfPi
	DD	03fc90fdbr			; 1.5708
	DD	03fc90fdbr			; 1.5708
	DD	03fc90fdbr			; 1.5708
;	COMDAT ?g_XMNegativePi@@3UXMVECTORF32@@B
.rdata	SEGMENT
?g_XMNegativePi@@3UXMVECTORF32@@B DD 0c0490fdbr	; -3.14159 ; g_XMNegativePi
	DD	0c0490fdbr			; -3.14159
	DD	0c0490fdbr			; -3.14159
	DD	0c0490fdbr			; -3.14159
;	COMDAT ?g_XMNegativeTwoPi@@3UXMVECTORF32@@B
.rdata	SEGMENT
?g_XMNegativeTwoPi@@3UXMVECTORF32@@B DD 0c0c90fdbr ; -6.28319 ; g_XMNegativeTwoPi
	DD	0c0c90fdbr			; -6.28319
	DD	0c0c90fdbr			; -6.28319
	DD	0c0c90fdbr			; -6.28319
;	COMDAT ?g_XMNegativeOneHalf@@3UXMVECTORF32@@B
.rdata	SEGMENT
?g_XMNegativeOneHalf@@3UXMVECTORF32@@B DD 0bf000000r ; -0.5 ; g_XMNegativeOneHalf
	DD	0bf000000r			; -0.5
	DD	0bf000000r			; -0.5
	DD	0bf000000r			; -0.5
;	COMDAT ?g_XMOneHalf@@3UXMVECTORF32@@B
.rdata	SEGMENT
?g_XMOneHalf@@3UXMVECTORF32@@B DD 03f000000r	; 0.5	; g_XMOneHalf
	DD	03f000000r			; 0.5
	DD	03f000000r			; 0.5
	DD	03f000000r			; 0.5
;	COMDAT ?g_XMNegativeOne@@3UXMVECTORF32@@B
.rdata	SEGMENT
?g_XMNegativeOne@@3UXMVECTORF32@@B DD 0bf800000r ; -1	; g_XMNegativeOne
	DD	0bf800000r			; -1
	DD	0bf800000r			; -1
	DD	0bf800000r			; -1
;	COMDAT ?g_XMZero@@3UXMVECTORF32@@B
.rdata	SEGMENT
?g_XMZero@@3UXMVECTORF32@@B DD 000000000r	; 0	; g_XMZero
	DD	000000000r			; 0
	DD	000000000r			; 0
	DD	000000000r			; 0
;	COMDAT ?g_XMOne3@@3UXMVECTORF32@@B
.rdata	SEGMENT
?g_XMOne3@@3UXMVECTORF32@@B DD 03f800000r	; 1	; g_XMOne3
	DD	03f800000r			; 1
	DD	03f800000r			; 1
	DD	000000000r			; 0
;	COMDAT ?g_XMOne@@3UXMVECTORF32@@B
.rdata	SEGMENT
?g_XMOne@@3UXMVECTORF32@@B DD 03f800000r	; 1	; g_XMOne
	DD	03f800000r			; 1
	DD	03f800000r			; 1
	DD	03f800000r			; 1
;	COMDAT ?g_XMMaskW@@3UXMVECTORI32@@B
.rdata	SEGMENT
?g_XMMaskW@@3UXMVECTORI32@@B DD 00H			; g_XMMaskW
	DD	00H
	DD	00H
	DD	0ffffffffH
;	COMDAT ?g_XMMaskZ@@3UXMVECTORI32@@B
.rdata	SEGMENT
?g_XMMaskZ@@3UXMVECTORI32@@B DD 00H			; g_XMMaskZ
	DD	00H
	DD	0ffffffffH
	DD	00H
;	COMDAT ?g_XMMaskY@@3UXMVECTORI32@@B
.rdata	SEGMENT
?g_XMMaskY@@3UXMVECTORI32@@B DD 00H			; g_XMMaskY
	DD	0ffffffffH
	DD	00H
	DD	00H
;	COMDAT ?g_XMMaskX@@3UXMVECTORI32@@B
.rdata	SEGMENT
?g_XMMaskX@@3UXMVECTORI32@@B DD 0ffffffffH		; g_XMMaskX
	DD	00H
	DD	00H
	DD	00H
;	COMDAT ?g_XMMask3@@3UXMVECTORI32@@B
.rdata	SEGMENT
?g_XMMask3@@3UXMVECTORI32@@B DD 0ffffffffH		; g_XMMask3
	DD	0ffffffffH
	DD	0ffffffffH
	DD	00H
;	COMDAT ?g_XMNegate3@@3UXMVECTORI32@@B
.rdata	SEGMENT
?g_XMNegate3@@3UXMVECTORI32@@B DD 080000000H		; g_XMNegate3
	DD	080000000H
	DD	080000000H
	DD	00H
;	COMDAT ?g_XMNegativeZero@@3UXMVECTORI32@@B
.rdata	SEGMENT
?g_XMNegativeZero@@3UXMVECTORI32@@B DD 080000000H	; g_XMNegativeZero
	DD	080000000H
	DD	080000000H
	DD	080000000H
;	COMDAT ?g_XMNegIdentityR3@@3UXMVECTORF32@@B
.rdata	SEGMENT
?g_XMNegIdentityR3@@3UXMVECTORF32@@B DD 000000000r ; 0	; g_XMNegIdentityR3
	DD	000000000r			; 0
	DD	000000000r			; 0
	DD	0bf800000r			; -1
;	COMDAT ?g_XMNegIdentityR2@@3UXMVECTORF32@@B
.rdata	SEGMENT
?g_XMNegIdentityR2@@3UXMVECTORF32@@B DD 000000000r ; 0	; g_XMNegIdentityR2
	DD	000000000r			; 0
	DD	0bf800000r			; -1
	DD	000000000r			; 0
;	COMDAT ?g_XMNegIdentityR1@@3UXMVECTORF32@@B
.rdata	SEGMENT
?g_XMNegIdentityR1@@3UXMVECTORF32@@B DD 000000000r ; 0	; g_XMNegIdentityR1
	DD	0bf800000r			; -1
	DD	000000000r			; 0
	DD	000000000r			; 0
;	COMDAT ?g_XMNegIdentityR0@@3UXMVECTORF32@@B
.rdata	SEGMENT
?g_XMNegIdentityR0@@3UXMVECTORF32@@B DD 0bf800000r ; -1	; g_XMNegIdentityR0
	DD	000000000r			; 0
	DD	000000000r			; 0
	DD	000000000r			; 0
;	COMDAT ?g_XMIdentityR3@@3UXMVECTORF32@@B
.rdata	SEGMENT
?g_XMIdentityR3@@3UXMVECTORF32@@B DD 000000000r	; 0	; g_XMIdentityR3
	DD	000000000r			; 0
	DD	000000000r			; 0
	DD	03f800000r			; 1
;	COMDAT ?g_XMIdentityR2@@3UXMVECTORF32@@B
.rdata	SEGMENT
?g_XMIdentityR2@@3UXMVECTORF32@@B DD 000000000r	; 0	; g_XMIdentityR2
	DD	000000000r			; 0
	DD	03f800000r			; 1
	DD	000000000r			; 0
;	COMDAT ?g_XMIdentityR1@@3UXMVECTORF32@@B
.rdata	SEGMENT
?g_XMIdentityR1@@3UXMVECTORF32@@B DD 000000000r	; 0	; g_XMIdentityR1
	DD	03f800000r			; 1
	DD	000000000r			; 0
	DD	000000000r			; 0
;	COMDAT ?g_XMIdentityR0@@3UXMVECTORF32@@B
.rdata	SEGMENT
?g_XMIdentityR0@@3UXMVECTORF32@@B DD 03f800000r	; 1	; g_XMIdentityR0
	DD	000000000r			; 0
	DD	000000000r			; 0
	DD	000000000r			; 0
;	COMDAT ?g_XMPiConstants0@@3UXMVECTORF32@@B
.rdata	SEGMENT
?g_XMPiConstants0@@3UXMVECTORF32@@B DD 040490fdbr ; 3.14159 ; g_XMPiConstants0
	DD	040c90fdbr			; 6.28319
	DD	03ea2f983r			; 0.31831
	DD	03e22f983r			; 0.159155
;	COMDAT ?g_XMASinEstConstants@@3UXMVECTORF32@@B
.rdata	SEGMENT
?g_XMASinEstConstants@@3UXMVECTORF32@@B DD 03f800001r ; 1 ; g_XMASinEstConstants
	DD	03fc90fdbr			; 1.5708
	DD	000000000r			; 0
	DD	000000000r			; 0
;	COMDAT ?g_XMASinEstCoefficients@@3UXMVECTORF32@@B
.rdata	SEGMENT
?g_XMASinEstCoefficients@@3UXMVECTORF32@@B DD 0bfae4ee5r ; -1.36178 ; g_XMASinEstCoefficients
	DD	0401849a5r			; 2.37949
	DD	0bf4ee811r			; -0.808229
	DD	03e8e8fb5r			; 0.27844
;	COMDAT ?g_XMATanEstCoefficients@@3UXMVECTORF32@@B
.rdata	SEGMENT
?g_XMATanEstCoefficients@@3UXMVECTORF32@@B DD 03f44dc79r ; 0.768989 ; g_XMATanEstCoefficients
	DD	03f8d6834r			; 1.10474
	DD	03f5dbe43r			; 0.866184
	DD	03fc90fdbr			; 1.5708
;	COMDAT ?g_XMTanEstCoefficients@@3UXMVECTORF32@@B
.rdata	SEGMENT
?g_XMTanEstCoefficients@@3UXMVECTORF32@@B DD 0401ef9dbr ; 2.484 ; g_XMTanEstCoefficients
	DD	0be482f23r			; -0.195492
	DD	0401de9e6r			; 2.4674
	DD	03ea2f983r			; 0.31831
;	COMDAT ?g_XMCosEstCoefficients@@3UXMVECTORF32@@B
.rdata	SEGMENT
?g_XMCosEstCoefficients@@3UXMVECTORF32@@B DD 03f800000r ; 1 ; g_XMCosEstCoefficients
	DD	0befd9e41r			; -0.495348
	DD	03d1eda81r			; 0.0387826
	DD	0ba72600cr			; -0.000924588
;	COMDAT ?g_XMSinEstCoefficients@@3UXMVECTORF32@@B
.rdata	SEGMENT
?g_XMSinEstCoefficients@@3UXMVECTORF32@@B DD 03f800000r ; 1 ; g_XMSinEstCoefficients
	DD	0be2a84b5r			; -0.166522
	DD	03c0658eer			; 0.00819991
	DD	0b92951der			; -0.000161476
;	COMDAT ?g_XMATanCoefficients2@@3UXMVECTORF32@@B
.rdata	SEGMENT
?g_XMATanCoefficients2@@3UXMVECTORF32@@B DD 03d70f0f1r ; 0.0588235 ; g_XMATanCoefficients2
	DD	03d579436r			; 0.0526316
	DD	03d430c31r			; 0.047619
	DD	03d321643r			; 0.0434783
;	COMDAT ?g_XMATanCoefficients1@@3UXMVECTORF32@@B
.rdata	SEGMENT
?g_XMATanCoefficients1@@3UXMVECTORF32@@B DD 03de38e39r ; 0.111111 ; g_XMATanCoefficients1
	DD	03dba2e8cr			; 0.0909091
	DD	03d9d89d9r			; 0.0769231
	DD	03d888889r			; 0.0666667
;	COMDAT ?g_XMATanCoefficients0@@3UXMVECTORF32@@B
.rdata	SEGMENT
?g_XMATanCoefficients0@@3UXMVECTORF32@@B DD 03f800000r ; 1 ; g_XMATanCoefficients0
	DD	03eaaaaabr			; 0.333333
	DD	03e4ccccdr			; 0.2
	DD	03e124925r			; 0.142857
;	COMDAT ?g_XMASinCoefficients2@@3UXMVECTORF32@@B
.rdata	SEGMENT
?g_XMASinCoefficients2@@3UXMVECTORF32@@B DD 0bfaf4418r ; -1.36927 ; g_XMASinCoefficients2
	DD	0c08f6ad9r			; -4.48179
	DD	03fb58485r			; 1.41811
	DD	040af6ad8r			; 5.48179
;	COMDAT ?g_XMASinCoefficients1@@3UXMVECTORF32@@B
.rdata	SEGMENT
?g_XMASinCoefficients1@@3UXMVECTORF32@@B DD 03f1dd7b6r ; 0.616573 ; g_XMASinCoefficients1
	DD	0408980bdr			; 4.29697
	DD	0bf983f2fr			; -1.18943
	DD	0c0d1360er			; -6.53785
;	COMDAT ?g_XMASinCoefficients0@@3UXMVECTORF32@@B
.rdata	SEGMENT
?g_XMASinCoefficients0@@3UXMVECTORF32@@B DD 0bd6dd42dr ; -0.0580637 ; g_XMASinCoefficients0
	DD	0bed65553r			; -0.41862
	DD	03e663246r			; 0.224801
	DD	0400b1889r			; 2.17337
;	COMDAT ?g_XMTanCoefficients2@@3UXMVECTORF32@@B
.rdata	SEGMENT
?g_XMTanCoefficients2@@3UXMVECTORF32@@B DD 03a1aac12r ; 0.000590027 ; g_XMTanCoefficients2
	DD	0397abeb9r			; 0.000239129
	DD	038cb3f0cr			; 9.69154e-005
	DD	03824bec9r			; 3.92783e-005
;	COMDAT ?g_XMTanCoefficients1@@3UXMVECTORF32@@B
.rdata	SEGMENT
?g_XMTanCoefficients1@@3UXMVECTORF32@@B DD 03cb327a4r ; 0.0218695 ; g_XMTanCoefficients1
	DD	03c11371br			; 0.00886324
	DD	03b6b69e9r			; 0.00359213
	DD	03abed1b3r			; 0.00145583
;	COMDAT ?g_XMTanCoefficients0@@3UXMVECTORF32@@B
.rdata	SEGMENT
?g_XMTanCoefficients0@@3UXMVECTORF32@@B DD 03f800000r ; 1 ; g_XMTanCoefficients0
	DD	03eaaaaabr			; 0.333333
	DD	03e088889r			; 0.133333
	DD	03d5d0dd1r			; 0.0539683
;	COMDAT ?g_XMCosCoefficients2@@3UXMVECTORF32@@B
.rdata	SEGMENT
?g_XMCosCoefficients2@@3UXMVECTORF32@@B DD 029573f9fr ; 4.77948e-014 ; g_XMCosCoefficients2
	DD	0a53413c3r			; -1.56192e-016
	DD	020f2a15dr			; 4.11032e-019
	DD	09c8671cbr			; -8.89679e-022
;	COMDAT ?g_XMCosCoefficients1@@3UXMVECTORF32@@B
.rdata	SEGMENT
?g_XMCosCoefficients1@@3UXMVECTORF32@@B DD 037d00d01r ; 2.48016e-005 ; g_XMCosCoefficients1
	DD	0b493f27er			; -2.75573e-007
	DD	0310f76c8r			; 2.08768e-009
	DD	0ad49cba5r			; -1.14707e-011
;	COMDAT ?g_XMCosCoefficients0@@3UXMVECTORF32@@B
.rdata	SEGMENT
?g_XMCosCoefficients0@@3UXMVECTORF32@@B DD 03f800000r ; 1 ; g_XMCosCoefficients0
	DD	0bf000000r			; -0.5
	DD	03d2aaaabr			; 0.0416667
	DD	0bab60b61r			; -0.00138889
;	COMDAT ?g_XMSinCoefficients2@@3UXMVECTORF32@@B
.rdata	SEGMENT
?g_XMSinCoefficients2@@3UXMVECTORF32@@B DD 0274a963cr ; 2.81146e-015 ; g_XMSinCoefficients2
	DD	0a317a4dar			; -8.22064e-018
	DD	01eb8dc78r			; 1.95729e-020
	DD	09a3b0da1r			; -3.86817e-023
;	COMDAT ?g_XMSinCoefficients1@@3UXMVECTORF32@@B
.rdata	SEGMENT
?g_XMSinCoefficients1@@3UXMVECTORF32@@B DD 03638ef1dr ; 2.75573e-006 ; g_XMSinCoefficients1
	DD	0b2d7322br			; -2.50521e-008
	DD	02f309231r			; 1.6059e-010
	DD	0ab573f9fr			; -7.64716e-013
;	COMDAT ?g_XMSinCoefficients0@@3UXMVECTORF32@@B
.rdata	SEGMENT
?g_XMSinCoefficients0@@3UXMVECTORF32@@B DD 03f800000r ; 1 ; g_XMSinCoefficients0
	DD	0be2aaaabr			; -0.166667
	DD	03c088889r			; 0.00833333
	DD	0b9500d01r			; -0.000198413
;	COMDAT D3DTESSPRIMITIVEVERTEXCOUNT
.rdata	SEGMENT
D3DTESSPRIMITIVEVERTEXCOUNT DD 00H
	DD	00H
	DD	00H
	DD	00H
	DD	02H
	DD	00H
	DD	01H
	DD	01H
	DD	03H
	DD	00H
	DD	01H
	DD	02H
	DD	01H
	DD	02H
	DD	00H
	DD	00H
	DD	00H
	DD	00H
	DD	00H
	DD	00H
	DD	00H
	DD	00H
	DD	00H
	DD	00H
	DD	00H
	DD	00H
	DD	04H
	DD	00H
	DD	00H
	DD	00H
	DD	00H
	DD	00H
	DD	01H
	DD	00H
	DD	01H
	DD	00H
	DD	01H
	DD	00H
;	COMDAT D3DPRIMITIVEVERTEXCOUNT
.rdata	SEGMENT
D3DPRIMITIVEVERTEXCOUNT DD 00H
	DD	00H
	DD	01H
	DD	00H
	DD	02H
	DD	00H
	DD	01H
	DD	01H
	DD	03H
	DD	00H
	DD	01H
	DD	02H
	DD	01H
	DD	02H
	DD	00H
	DD	00H
	DD	03H
	DD	00H
	DD	00H
	DD	00H
	DD	00H
	DD	00H
	DD	00H
	DD	00H
	DD	00H
	DD	00H
	DD	04H
	DD	00H
;	COMDAT __C1_11886
.XBLD$W	SEGMENT
__C1_11886 DW	04331H
	DW	00H
	DW	00H
	DW	00H
	DW	010H
	DW	00H
	DW	02e6eH
	DW	04400H
;	COMDAT __C2_11886
.XBLD$W	SEGMENT
__C2_11886 DB	'C2', 00H, 00H, 00H, 00H, 00H, 00H, 00H, 010H, 00H, 00H, '.'
	DB	'nD', 00H
; Function compile flags: /Ogsu

	.code

D3DDevice_BeginScene PROC NEAR				; COMDAT

; Begin code for function: D3DDevice_BeginScene
; File c:\program files (x86)\microsoft xbox 360 sdk\include\xbox\d3d9.h
; Line 2308
	blr
; End code for function: D3DDevice_BeginScene
D3DDevice_BeginScene ENDP

; Function compile flags: /Ogsu

	.code

D3DDevice_EndScene PROC NEAR				; COMDAT

; Begin code for function: D3DDevice_EndScene
; Line 2309
	blr
; End code for function: D3DDevice_EndScene
D3DDevice_EndScene ENDP

PUBLIC	?Present@D3DDevice@@QAAJPBUtagRECT@@0PAX1@Z	; D3DDevice::Present
EXTRN	D3DDevice_Present:PROC
;	COMDAT .pdata
.pdata	SEGMENT
$T74155	DD	?Present@D3DDevice@@QAAJPBUtagRECT@@0PAX1@Z
	DD	040000903H
; Function compile flags: /Ogsu

	.code

?Present@D3DDevice@@QAAJPBUtagRECT@@0PAX1@Z PROC NEAR	; D3DDevice::Present, COMDAT

; Begin code for function: ?Present@D3DDevice@@QAAJPBUtagRECT@@0PAX1@Z
; Line 3835
	mflr         r12
	stw          r12,-8(r1)
	stwu         r1,-60h(r1)
.endprolog
$M74153:
	bl           D3DDevice_Present
	li           r3,0
	addi         r1,r1,96		; 60h
	lwz          r12,-8(r1)
	mtlr         r12
	blr
$M74154:
; End code for function: ?Present@D3DDevice@@QAAJPBUtagRECT@@0PAX1@Z
?Present@D3DDevice@@QAAJPBUtagRECT@@0PAX1@Z ENDP
							; D3DDevice::Present
PUBLIC	?BeginScene@D3DDevice@@QAAJXZ			; D3DDevice::BeginScene
; Function compile flags: /Ogsu

	.code

?BeginScene@D3DDevice@@QAAJXZ PROC NEAR			; D3DDevice::BeginScene, COMDAT

; Begin code for function: ?BeginScene@D3DDevice@@QAAJXZ
; Line 3857
	li           r3,0
	blr
; End code for function: ?BeginScene@D3DDevice@@QAAJXZ
?BeginScene@D3DDevice@@QAAJXZ ENDP
							; D3DDevice::BeginScene
PUBLIC	?EndScene@D3DDevice@@QAAJXZ			; D3DDevice::EndScene
; Function compile flags: /Ogsu

	.code

?EndScene@D3DDevice@@QAAJXZ PROC NEAR			; D3DDevice::EndScene, COMDAT

; Begin code for function: ?EndScene@D3DDevice@@QAAJXZ
; Line 3858
	li           r3,0
	blr
; End code for function: ?EndScene@D3DDevice@@QAAJXZ
?EndScene@D3DDevice@@QAAJXZ ENDP
							; D3DDevice::EndScene
PUBLIC	?Clear@D3DDevice@@QAAJKPBU_D3DRECT@@KKMK@Z	; D3DDevice::Clear
EXTRN	D3DDevice_Clear:PROC
EXTRN	_fltused:PROC
;	COMDAT .pdata
.pdata	SEGMENT
$T74172	DD	?Clear@D3DDevice@@QAAJKPBU_D3DRECT@@KKMK@Z
	DD	040000a03H
; Function compile flags: /Ogsu

	.code

?Clear@D3DDevice@@QAAJKPBU_D3DRECT@@KKMK@Z PROC NEAR	; D3DDevice::Clear, COMDAT

; Begin code for function: ?Clear@D3DDevice@@QAAJKPBU_D3DRECT@@KKMK@Z
; Line 3859
	mflr         r12
	stw          r12,-8(r1)
	stwu         r1,-60h(r1)
.endprolog
$M74170:
	li           r10,0
	bl           D3DDevice_Clear
	li           r3,0
	addi         r1,r1,96		; 60h
	lwz          r12,-8(r1)
	mtlr         r12
	blr
$M74171:
; End code for function: ?Clear@D3DDevice@@QAAJKPBU_D3DRECT@@KKMK@Z
?Clear@D3DDevice@@QAAJKPBU_D3DRECT@@KKMK@Z ENDP
							; D3DDevice::Clear
PUBLIC	?DrawPrimitiveUP@D3DDevice@@QAAJW4_D3DPRIMITIVETYPE@@IPBXI@Z ; D3DDevice::DrawPrimitiveUP
EXTRN	D3DDevice_DrawVerticesUP:PROC
;	COMDAT .pdata
.pdata	SEGMENT
$T74178	DD	?DrawPrimitiveUP@D3DDevice@@QAAJW4_D3DPRIMITIVETYPE@@IPBXI@Z
	DD	040001103H
; Function compile flags: /Ogsu

	.code

?DrawPrimitiveUP@D3DDevice@@QAAJW4_D3DPRIMITIVETYPE@@IPBXI@Z PROC NEAR ; D3DDevice::DrawPrimitiveUP, COMDAT

; Begin code for function: ?DrawPrimitiveUP@D3DDevice@@QAAJW4_D3DPRIMITIVETYPE@@IPBXI@Z
; Line 3895
	mflr         r12
	stw          r12,-8(r1)
	stwu         r1,-60h(r1)
.endprolog
$M74176:
	lis          r11,D3DPRIMITIVEVERTEXCOUNT
	slwi         r10,r4,3
	addi         r11,r11,D3DPRIMITIVEVERTEXCOUNT
	addi         r9,r11,4
	lwzx         r8,r10,r11
	lwzx         r11,r10,r9
	mullw        r10,r8,r5
	add          r5,r10,r11
	bl           D3DDevice_DrawVerticesUP
	li           r3,0
	addi         r1,r1,96		; 60h
	lwz          r12,-8(r1)
	mtlr         r12
	blr
$M74177:
; End code for function: ?DrawPrimitiveUP@D3DDevice@@QAAJW4_D3DPRIMITIVETYPE@@IPBXI@Z
?DrawPrimitiveUP@D3DDevice@@QAAJW4_D3DPRIMITIVETYPE@@IPBXI@Z ENDP
							; D3DDevice::DrawPrimitiveUP
PUBLIC	?SetFVF@D3DDevice@@QAAJK@Z			; D3DDevice::SetFVF
EXTRN	D3DDevice_SetFVF:PROC
;	COMDAT .pdata
.pdata	SEGMENT
$T74184	DD	?SetFVF@D3DDevice@@QAAJK@Z
	DD	040000903H
; Function compile flags: /Ogsu

	.code

?SetFVF@D3DDevice@@QAAJK@Z PROC NEAR			; D3DDevice::SetFVF, COMDAT

; Begin code for function: ?SetFVF@D3DDevice@@QAAJK@Z
; Line 3901
	mflr         r12
	stw          r12,-8(r1)
	stwu         r1,-60h(r1)
.endprolog
$M74182:
	bl           D3DDevice_SetFVF
	li           r3,0
	addi         r1,r1,96		; 60h
	lwz          r12,-8(r1)
	mtlr         r12
	blr
$M74183:
; End code for function: ?SetFVF@D3DDevice@@QAAJK@Z
?SetFVF@D3DDevice@@QAAJK@Z ENDP
							; D3DDevice::SetFVF
PUBLIC	fabsf
; Function compile flags: /Ogsu

	.code

fabsf PROC NEAR						; COMDAT

; Begin code for function: fabsf
; File c:\program files (x86)\microsoft xbox 360 sdk\include\xbox\math.h
; Line 292
	fabs         fr1,fr1
	blr
; End code for function: fabsf
fabsf	ENDP

PUBLIC	ceilf
EXTRN	ceil:PROC
;	COMDAT .pdata
.pdata	SEGMENT
$T74192	DD	ceilf
	DD	040000903H
; Function compile flags: /Ogsu

	.code

ceilf PROC NEAR						; COMDAT

; Begin code for function: ceilf
; Line 304
	mflr         r12
	stw          r12,-8(r1)
	stwu         r1,-60h(r1)
.endprolog
$M74190:
	bl           ceil
	frsp         fr1,fr1
	addi         r1,r1,96		; 60h
	lwz          r12,-8(r1)
	mtlr         r12
	blr
$M74191:
; End code for function: ceilf
ceilf	ENDP

PUBLIC	sinf
EXTRN	sin:PROC
;	COMDAT .pdata
.pdata	SEGMENT
$T74198	DD	sinf
	DD	040000903H
; Function compile flags: /Ogsu

	.code

sinf PROC NEAR						; COMDAT

; Begin code for function: sinf
; Line 326
	mflr         r12
	stw          r12,-8(r1)
	stwu         r1,-60h(r1)
.endprolog
$M74196:
	bl           sin
	frsp         fr1,fr1
	addi         r1,r1,96		; 60h
	lwz          r12,-8(r1)
	mtlr         r12
	blr
$M74197:
; End code for function: sinf
sinf	ENDP

PUBLIC	?ceil@@YAMM@Z					; ceil
;	COMDAT .pdata
.pdata	SEGMENT
$T74207	DD	?ceil@@YAMM@Z
	DD	040000903H
; Function compile flags: /Ogsu

	.code

?ceil@@YAMM@Z PROC NEAR					; ceil, COMDAT

; Begin code for function: ?ceil@@YAMM@Z
; Line 402
	mflr         r12
	stw          r12,-8(r1)
	stwu         r1,-60h(r1)
.endprolog
$M74205:
	bl           ceil
	frsp         fr1,fr1
	addi         r1,r1,96		; 60h
	lwz          r12,-8(r1)
	mtlr         r12
	blr
$M74206:
; End code for function: ?ceil@@YAMM@Z
?ceil@@YAMM@Z ENDP
							; ceil
PUBLIC	?swprintf@@YAHPA_WPB_WZZ			; swprintf
EXTRN	_vswprintf:PROC
;	COMDAT .pdata
; File c:\program files (x86)\microsoft xbox 360 sdk\include\xbox\swprintf.inl
.pdata	SEGMENT
$T74213	DD	?swprintf@@YAHPA_WPB_WZZ
	DD	040001309H
; Function compile flags: /Ogsu

	.code
_Arglist$ = 80						; size = 4
_Format$ = 124						; size = 4

?swprintf@@YAHPA_WPB_WZZ PROC NEAR			; swprintf, COMDAT

; Begin code for function: ?swprintf@@YAHPA_WPB_WZZ
; Line 76
	mflr         r12
	stw          r12,-8(r1)
	std          r5,20h(r1)
	std          r6,28h(r1)
	std          r7,30h(r1)
	std          r8,38h(r1)
	std          r9,40h(r1)
	std          r10,48h(r1)
	stwu         r1,-60h(r1)
.endprolog
$M74211:
; Line 78
	stw          r4,_Format$(r1)		; 124 (7Ch)
	addi         r11,r1,_Arglist$
	addi         r10,r1,_Format$+4
; Line 79
	stw          r10,0(r11)
	lwz          r5,_Arglist$(r1)		; 80 (50h)
	bl           _vswprintf
; Line 82
	addi         r1,r1,96		; 60h
	lwz          r12,-8(r1)
	mtlr         r12
	blr
$M74212:
; End code for function: ?swprintf@@YAHPA_WPB_WZZ
?swprintf@@YAHPA_WPB_WZZ ENDP
							; swprintf
PUBLIC	?ResolveFunct@@YAKPADK@Z			; ResolveFunct
EXTRN	XexGetProcedureAddress:PROC
EXTRN	XexGetModuleHandle:PROC
;	COMDAT .pdata
; File c:\users\t3fur\desktop\trainer engine t3\trainer engine t3\trainer\common.h
.pdata	SEGMENT
$T74219	DD	?ResolveFunct@@YAKPADK@Z
	DD	040001804H
; Function compile flags: /Ogsu

	.code
Ptr2$ = 80						; size = 4
hand$ = 84						; size = 4

?ResolveFunct@@YAKPADK@Z PROC NEAR			; ResolveFunct, COMDAT

; Begin code for function: ?ResolveFunct@@YAKPADK@Z
; Line 34
	mflr         r12
	stw          r12,-8(r1)
	std          r31,-10h(r1)
	stwu         r1,-70h(r1)
.endprolog
$M74217:
; Line 36
	li           r11,0
	mr           r31,r4
; Line 37
	stw          r11,Ptr2$(r1)		; 80 (50h)
	addi         r4,r1,hand$
	bl           XexGetModuleHandle
; Line 38
	cmplwi       r3,0
	bne          $LN1@ResolveFun
; Line 39
	addi         r5,r1,Ptr2$
	lwz          r3,hand$(r1)		; 84 (54h)
	mr           r4,r31
	bl           XexGetProcedureAddress
; Line 40
	lwz          r3,Ptr2$(r1)		; 80 (50h)
	cmplwi       cr6,r3,0
; Line 41
	bne          cr6,$LN3@ResolveFun
$LN1@ResolveFun:
; Line 43
	li           r3,0
$LN3@ResolveFun:
; Line 44
	addi         r1,r1,112		; 70h
	lwz          r12,-8(r1)
	mtlr         r12
	ld           r31,-10h(r1)
	blr
$M74218:
; End code for function: ?ResolveFunct@@YAKPADK@Z
?ResolveFunct@@YAKPADK@Z ENDP
							; ResolveFunct
PUBLIC	??_C@_1BA@GFPHIAOD@T?$AAe?$AAa?$AAm?$AAX?$AAP?$AAG?$AA?$AA?$AA@ ; `string'
PUBLIC	??_C@_1CO@FKLDOAED@T?$AAi?$AAt?$AAl?$AAe?$AAI?$AAD?$AA?5?$AAN?$AAo?$AAt?$AA?5?$AAC?$AAo?$AAm?$AAp?$AAa?$AAt?$AAi?$AAb?$AAl?$AAe?$AA?$AA?$AA@ ; `string'
PUBLIC	?notwork@@YAXXZ					; notwork
EXTRN	XShowMessageBoxUI:PROC
;	COMDAT .pdata
.pdata	SEGMENT
$T74225	DD	?notwork@@YAXXZ
	DD	040001903H
;	COMDAT ??_C@_1BA@GFPHIAOD@T?$AAe?$AAa?$AAm?$AAX?$AAP?$AAG?$AA?$AA?$AA@
.rdata	SEGMENT
??_C@_1BA@GFPHIAOD@T?$AAe?$AAa?$AAm?$AAX?$AAP?$AAG?$AA?$AA?$AA@ DB 00H, 'T'
	DB	00H, 'e', 00H, 'a', 00H, 'm', 00H, 'X', 00H, 'P', 00H, 'G', 00H
	DB	00H						; `string'
;	COMDAT ??_C@_1CO@FKLDOAED@T?$AAi?$AAt?$AAl?$AAe?$AAI?$AAD?$AA?5?$AAN?$AAo?$AAt?$AA?5?$AAC?$AAo?$AAm?$AAp?$AAa?$AAt?$AAi?$AAb?$AAl?$AAe?$AA?$AA?$AA@
.rdata	SEGMENT
??_C@_1CO@FKLDOAED@T?$AAi?$AAt?$AAl?$AAe?$AAI?$AAD?$AA?5?$AAN?$AAo?$AAt?$AA?5?$AAC?$AAo?$AAm?$AAp?$AAa?$AAt?$AAi?$AAb?$AAl?$AAe?$AA?$AA?$AA@ DB 00H
	DB	'T', 00H, 'i', 00H, 't', 00H, 'l', 00H, 'e', 00H, 'I', 00H, 'D'
	DB	00H, ' ', 00H, 'N', 00H, 'o', 00H, 't', 00H, ' ', 00H, 'C', 00H
	DB	'o', 00H, 'm', 00H, 'p', 00H, 'a', 00H, 't', 00H, 'i', 00H, 'b'
	DB	00H, 'l', 00H, 'e', 00H, 00H			; `string'
; Function compile flags: /Ogsu

	.code

?notwork@@YAXXZ	PROC NEAR				; notwork, COMDAT

; Begin code for function: ?notwork@@YAXXZ
; Line 48
	mflr         r12
	stw          r12,-8(r1)
	stwu         r1,-60h(r1)
.endprolog
$M74223:
; Line 49
	lis          r9,?g_strButtons@@3PAPB_WA
	lis          r8,??_C@_1CO@FKLDOAED@T?$AAi?$AAt?$AAl?$AAe?$AAI?$AAD?$AA?5?$AAN?$AAo?$AAt?$AA?5?$AAC?$AAo?$AAm?$AAp?$AAa?$AAt?$AAi?$AAb?$AAl?$AAe?$AA?$AA?$AA@
	lis          r6,??_C@_1BA@GFPHIAOD@T?$AAe?$AAa?$AAm?$AAX?$AAP?$AAG?$AA?$AA?$AA@
	lis          r11,?g_xol@@3U_XOVERLAPPED@@A
	lis          r10,?g_mb_result@@3U_MESSAGEBOX_RESULT@@A
	addi         r11,r11,?g_xol@@3U_XOVERLAPPED@@A
	addi         r7,r9,?g_strButtons@@3PAPB_WA
	addi         r5,r8,??_C@_1CO@FKLDOAED@T?$AAi?$AAt?$AAl?$AAe?$AAI?$AAD?$AA?5?$AAN?$AAo?$AAt?$AA?5?$AAC?$AAo?$AAm?$AAp?$AAa?$AAt?$AAi?$AAb?$AAl?$AAe?$AA?$AA?$AA@
	stw          r11,54h(r1)
	addi         r4,r6,??_C@_1BA@GFPHIAOD@T?$AAe?$AAa?$AAm?$AAX?$AAP?$AAG?$AA?$AA?$AA@
	addi         r10,r10,?g_mb_result@@3U_MESSAGEBOX_RESULT@@A
	lis          r9,1
	li           r8,0
	li           r6,1
	li           r3,0
	bl           XShowMessageBoxUI
	lis          r11,?Prompt@@3KA
	stw          r3,?Prompt@@3KA(r11)
; Line 50
	addi         r1,r1,96		; 60h
	lwz          r12,-8(r1)
	mtlr         r12
	blr
$M74224:
; End code for function: ?notwork@@YAXXZ
?notwork@@YAXXZ ENDP
							; notwork
PUBLIC	SetDWORD
EXTRN	MmIsAddressValid:PROC
;	COMDAT .pdata
.pdata	SEGMENT
$T74231	DD	SetDWORD
	DD	040001d04H
; Function compile flags: /Ogsu

	.code

SetDWORD	 PROC NEAR					; COMDAT

; Begin code for function: SetDWORD
; Line 73
	mflr         r12
	stw          r12,-8(r1)
	std          r31,-10h(r1)
	stwu         r1,-60h(r1)
.endprolog
$M74229:
	stw          r4,value$(r1)		; 124 (7Ch)
	mr           r31,r3
; Line 74
	bl           MmIsAddressValid
	cmplwi       r3,0
	beq          $LN1@SetDWORD
; Line 77
	lis          r11,?KrnlType@@3KA
	lwz          r11,?KrnlType@@3KA(r11)
	cmplwi       cr6,r11,0
	bne          cr6,$LN2@SetDWORD
; Line 78
	lwz          r11,value$(r1)		; 124 (7Ch)
	stw          r11,0(r31)
; Line 79
	b            $LN1@SetDWORD
$LN2@SetDWORD:
; Line 80
	lis          r11,?DmSetMemoryD@@3P6AJPAXKPBXPAK@ZA
	li           r6,0
	addi         r5,r1,value$
	li           r4,4
	mr           r3,r31
	lwz          r11,?DmSetMemoryD@@3P6AJPAXKPBXPAK@ZA(r11)
	mtctr        r11
	bctrl
$LN1@SetDWORD:
; Line 81
	addi         r1,r1,96		; 60h
	lwz          r12,-8(r1)
	mtlr         r12
	ld           r31,-10h(r1)
	blr
$M74230:
; End code for function: SetDWORD
SetDWORD ENDP

PUBLIC	?SetStatic@@YAXKK@Z				; SetStatic
;	COMDAT .pdata
.pdata	SEGMENT
$T74237	DD	?SetStatic@@YAXKK@Z
	DD	040001e04H
; Function compile flags: /Ogsu

	.code

?SetStatic@@YAXKK@Z PROC NEAR				; SetStatic, COMDAT

; Begin code for function: ?SetStatic@@YAXKK@Z
; Line 84
	mflr         r12
	stw          r12,-8(r1)
	std          r31,-10h(r1)
	stwu         r1,-60h(r1)
.endprolog
$M74235:
	stw          r4,value$(r1)		; 124 (7Ch)
	mr           r31,r3
; Line 85
	bl           MmIsAddressValid
	cmplwi       r3,0
	beq          $LN1@SetStatic
; Line 88
	lis          r11,?KrnlType@@3KA
	lwz          r11,?KrnlType@@3KA(r11)
	cmplwi       cr6,r11,0
	bne          cr6,$LN2@SetStatic
; Line 89
	lwz          r11,value$(r1)		; 124 (7Ch)
	lwz          r11,0(r11)
	stw          r11,0(r31)
; Line 90
	b            $LN1@SetStatic
$LN2@SetStatic:
; Line 91
	lis          r11,?DmSetMemoryD@@3P6AJPAXKPBXPAK@ZA
	li           r6,0
	addi         r5,r1,value$
	li           r4,4
	mr           r3,r31
	lwz          r11,?DmSetMemoryD@@3P6AJPAXKPBXPAK@ZA(r11)
	mtctr        r11
	bctrl
$LN1@SetStatic:
; Line 92
	addi         r1,r1,96		; 60h
	lwz          r12,-8(r1)
	mtlr         r12
	ld           r31,-10h(r1)
	blr
$M74236:
; End code for function: ?SetStatic@@YAXKK@Z
?SetStatic@@YAXKK@Z ENDP
							; SetStatic
PUBLIC	GetDWORD
;	COMDAT .pdata
.pdata	SEGMENT
$T74243	DD	GetDWORD
	DD	040001c04H
; Function compile flags: /Ogsu

	.code
temp$ = 80						; size = 4

GetDWORD	 PROC NEAR					; COMDAT

; Begin code for function: GetDWORD
; Line 95
	mflr         r12
	stw          r12,-8(r1)
	std          r31,-10h(r1)
	stwu         r1,-70h(r1)
.endprolog
$M74241:
	mr           r31,r3
; Line 98
	bl           MmIsAddressValid
	cmplwi       r3,0
	beq          $LN4@GetDWORD
$LN3@GetDWORD:
; Line 101
	lis          r11,?KrnlType@@3KA
	lwz          r11,?KrnlType@@3KA(r11)
	cmplwi       cr6,r11,0
	bne          cr6,$LN2@GetDWORD
; Line 102
	lwz          r3,0(r31)
; Line 103
	b            $LN4@GetDWORD
$LN2@GetDWORD:
; Line 104
	lis          r11,?DmGetMemoryD@@3P6AJPBXKPAXPAK@ZA
	li           r6,0
	addi         r5,r1,temp$
	li           r4,4
	mr           r3,r31
	lwz          r11,?DmGetMemoryD@@3P6AJPBXKPAXPAK@ZA(r11)
	mtctr        r11
	bctrl
	lwz          r3,temp$(r1)		; 80 (50h)
; Line 106
$LN4@GetDWORD:
; Line 107
	addi         r1,r1,112		; 70h
	lwz          r12,-8(r1)
	mtlr         r12
	ld           r31,-10h(r1)
	blr
$M74242:
; End code for function: GetDWORD
GetDWORD ENDP

PUBLIC	SetBYTE
;	COMDAT .pdata
.pdata	SEGMENT
$T74249	DD	SetBYTE
	DD	040001d04H
; Function compile flags: /Ogsu

	.code

SetBYTE	PROC NEAR					; COMDAT

; Begin code for function: SetBYTE
; Line 110
	mflr         r12
	stw          r12,-8(r1)
	std          r31,-10h(r1)
	stwu         r1,-60h(r1)
.endprolog
$M74247:
	stb          r4,value$(r1)		; 127 (7Fh)
	mr           r31,r3
; Line 111
	bl           MmIsAddressValid
	cmplwi       r3,0
	beq          $LN1@SetBYTE
; Line 114
	lis          r11,?KrnlType@@3KA
	lwz          r11,?KrnlType@@3KA(r11)
	cmplwi       cr6,r11,0
	bne          cr6,$LN2@SetBYTE
; Line 115
	lbz          r11,value$(r1)		; 127 (7Fh)
	stb          r11,0(r31)
; Line 116
	b            $LN1@SetBYTE
$LN2@SetBYTE:
; Line 117
	lis          r11,?DmSetMemoryD@@3P6AJPAXKPBXPAK@ZA
	li           r6,0
	addi         r5,r1,value$
	li           r4,1
	mr           r3,r31
	lwz          r11,?DmSetMemoryD@@3P6AJPAXKPBXPAK@ZA(r11)
	mtctr        r11
	bctrl
$LN1@SetBYTE:
; Line 118
	addi         r1,r1,96		; 60h
	lwz          r12,-8(r1)
	mtlr         r12
	ld           r31,-10h(r1)
	blr
$M74248:
; End code for function: SetBYTE
SetBYTE	ENDP

PUBLIC	GetBYTE
;	COMDAT .pdata
.pdata	SEGMENT
$T74255	DD	GetBYTE
	DD	040001c04H
; Function compile flags: /Ogsu

	.code
temp$ = 80						; size = 1

GetBYTE	PROC NEAR					; COMDAT

; Begin code for function: GetBYTE
; Line 121
	mflr         r12
	stw          r12,-8(r1)
	std          r31,-10h(r1)
	stwu         r1,-70h(r1)
.endprolog
$M74253:
	mr           r31,r3
; Line 124
	bl           MmIsAddressValid
	cmplwi       r3,0
	beq          $LN4@GetBYTE
$LN3@GetBYTE:
; Line 127
	lis          r11,?KrnlType@@3KA
	lwz          r11,?KrnlType@@3KA(r11)
	cmplwi       cr6,r11,0
	bne          cr6,$LN2@GetBYTE
; Line 128
	lbz          r3,0(r31)
; Line 129
	b            $LN4@GetBYTE
$LN2@GetBYTE:
; Line 130
	lis          r11,?DmGetMemoryD@@3P6AJPBXKPAXPAK@ZA
	li           r6,0
	addi         r5,r1,temp$
	li           r4,1
	mr           r3,r31
	lwz          r11,?DmGetMemoryD@@3P6AJPBXKPAXPAK@ZA(r11)
	mtctr        r11
	bctrl
	lbz          r3,temp$(r1)		; 80 (50h)
; Line 132
$LN4@GetBYTE:
; Line 133
	addi         r1,r1,112		; 70h
	lwz          r12,-8(r1)
	mtlr         r12
	ld           r31,-10h(r1)
	blr
$M74254:
; End code for function: GetBYTE
GetBYTE	ENDP

PUBLIC	SetWORD
;	COMDAT .pdata
.pdata	SEGMENT
$T74261	DD	SetWORD
	DD	040001d04H
; Function compile flags: /Ogsu

	.code

SetWORD	PROC NEAR					; COMDAT

; Begin code for function: SetWORD
; Line 137
	mflr         r12
	stw          r12,-8(r1)
	std          r31,-10h(r1)
	stwu         r1,-60h(r1)
.endprolog
$M74259:
	sth          r4,value$(r1)		; 126 (7Eh)
	mr           r31,r3
; Line 138
	bl           MmIsAddressValid
	cmplwi       r3,0
	beq          $LN1@SetWORD
; Line 141
	lis          r11,?KrnlType@@3KA
	lwz          r11,?KrnlType@@3KA(r11)
	cmplwi       cr6,r11,0
	bne          cr6,$LN2@SetWORD
; Line 142
	lhz          r11,value$(r1)		; 126 (7Eh)
	sth          r11,0(r31)
; Line 143
	b            $LN1@SetWORD
$LN2@SetWORD:
; Line 144
	lis          r11,?DmSetMemoryD@@3P6AJPAXKPBXPAK@ZA
	li           r6,0
	addi         r5,r1,value$
	li           r4,2
	mr           r3,r31
	lwz          r11,?DmSetMemoryD@@3P6AJPAXKPBXPAK@ZA(r11)
	mtctr        r11
	bctrl
$LN1@SetWORD:
; Line 145
	addi         r1,r1,96		; 60h
	lwz          r12,-8(r1)
	mtlr         r12
	ld           r31,-10h(r1)
	blr
$M74260:
; End code for function: SetWORD
SetWORD	ENDP

PUBLIC	GetWORD
;	COMDAT .pdata
.pdata	SEGMENT
$T74267	DD	GetWORD
	DD	040001c04H
; Function compile flags: /Ogsu

	.code
temp$ = 80						; size = 2

GetWORD	PROC NEAR					; COMDAT

; Begin code for function: GetWORD
; Line 148
	mflr         r12
	stw          r12,-8(r1)
	std          r31,-10h(r1)
	stwu         r1,-70h(r1)
.endprolog
$M74265:
	mr           r31,r3
; Line 151
	bl           MmIsAddressValid
	cmplwi       r3,0
	beq          $LN4@GetWORD
$LN3@GetWORD:
; Line 154
	lis          r11,?KrnlType@@3KA
	lwz          r11,?KrnlType@@3KA(r11)
	cmplwi       cr6,r11,0
	bne          cr6,$LN2@GetWORD
; Line 155
	lhz          r3,0(r31)
; Line 156
	b            $LN4@GetWORD
$LN2@GetWORD:
; Line 157
	lis          r11,?DmGetMemoryD@@3P6AJPBXKPAXPAK@ZA
	li           r6,0
	addi         r5,r1,temp$
	li           r4,2
	mr           r3,r31
	lwz          r11,?DmGetMemoryD@@3P6AJPBXKPAXPAK@ZA(r11)
	mtctr        r11
	bctrl
	lhz          r3,temp$(r1)		; 80 (50h)
; Line 159
$LN4@GetWORD:
; Line 160
	addi         r1,r1,112		; 70h
	lwz          r12,-8(r1)
	mtlr         r12
	ld           r31,-10h(r1)
	blr
$M74266:
; End code for function: GetWORD
GetWORD	ENDP

EXTRN	Sleep:PROC
EXTRN	XInputSetState:PROC
;	COMDAT .pdata
.pdata	SEGMENT
$T74273	DD	?Vibr01@@YAXXZ
	DD	040001a04H
; Function compile flags: /Ogsu

	.code
vibration$ = 80						; size = 4

?Vibr01@@YAXXZ PROC NEAR					; Vibr01, COMDAT

; Begin code for function: ?Vibr01@@YAXXZ
; Line 162
	mflr         r12
	stw          r12,-8(r1)
	std          r31,-10h(r1)
	stwu         r1,-70h(r1)
.endprolog
$M74271:
; Line 164
	addi         r11,r1,vibration$
	li           r31,0
; Line 168
	li           r10,32000		; 7D00h
	li           r9,16000		; 3E80h
	addi         r4,r1,vibration$
	stw          r31,0(r11)
	sth          r10,vibration$(r1)		; 80 (50h)
	li           r3,0
	sth          r9,vibration$+2(r1)		; 82 (52h)
	bl           XInputSetState
; Line 169
	li           r3,850		; 352h
	bl           Sleep
; Line 171
	sth          r31,vibration$(r1)		; 80 (50h)
; Line 172
	sth          r31,vibration$+2(r1)		; 82 (52h)
	addi         r4,r1,vibration$
	li           r3,0
	bl           XInputSetState
; Line 173
	addi         r1,r1,112		; 70h
	lwz          r12,-8(r1)
	mtlr         r12
	ld           r31,-10h(r1)
	blr
$M74272:
; End code for function: ?Vibr01@@YAXXZ
?Vibr01@@YAXXZ ENDP
							; Vibr01
PUBLIC	??_C@_07FEDBCEF@xam?4xex?$AA@			; `string'
PUBLIC	?commands@@YAKPA_W@Z				; commands
EXTRN	?resolveFunct@@YAKPADK@Z:PROC			; resolveFunct
;	COMDAT .pdata
.pdata	SEGMENT
$T74279	DD	?commands@@YAKPA_W@Z
	DD	040001f05H
;	COMDAT ??_C@_07FEDBCEF@xam?4xex?$AA@
.rdata	SEGMENT
??_C@_07FEDBCEF@xam?4xex?$AA@ DB 'xam.xex', 00H		; `string'
; Function compile flags: /Ogsu

	.code
buffer$ = 80						; size = 1196

?commands@@YAKPA_W@Z PROC NEAR				; commands, COMDAT

; Begin code for function: ?commands@@YAKPA_W@Z
; Line 209
	mflr         r12
	stw          r12,-8(r1)
	std          r30,-18h(r1)
	std          r31,-10h(r1)
	stwu         r1,-520h(r1)
.endprolog
$M74277:
; Line 210
	lis          r11,??_C@_07FEDBCEF@xam?4xex?$AA@
	mr           r31,r3
	li           r4,656		; 290h
	addi         r3,r11,??_C@_07FEDBCEF@xam?4xex?$AA@
	bl           ?resolveFunct@@YAKPADK@Z
	lis          r30,?XNotifyQueueUI@@3P6AXKKKPA_WK@ZA
	mr           r11,r3
; Line 212
	mr           r4,r31
	addi         r3,r1,buffer$
	stw          r11,?XNotifyQueueUI@@3P6AXKKKPA_WK@ZA(r30)
	bl           ?swprintf@@YAHPA_WPB_WZZ
; Line 213
	lwz          r11,?XNotifyQueueUI@@3P6AXKKKPA_WK@ZA(r30)
	li           r7,0
	addi         r6,r1,buffer$
	li           r5,2
	li           r4,0
	li           r3,34		; 22h
	mtctr        r11
	bctrl
; Line 215
	li           r3,0
; Line 216
	addi         r1,r1,1312		; 520h
	lwz          r12,-8(r1)
	mtlr         r12
	ld           r30,-18h(r1)
	ld           r31,-10h(r1)
	blr
$M74278:
; End code for function: ?commands@@YAKPA_W@Z
?commands@@YAKPA_W@Z ENDP
							; commands
PUBLIC	?DoCave@@YAXKPAKI@Z				; DoCave
EXTRN	memcpy:PROC
; Function compile flags: /Ogsu

	.code

?DoCave@@YAXKPAKI@Z PROC NEAR				; DoCave, COMDAT

; Begin code for function: ?DoCave@@YAXKPAKI@Z
; Line 220
	lis          r10,?KrnlType@@3KA
	mr           r11,r5
	lwz          r10,?KrnlType@@3KA(r10)
	cmplwi       cr6,r10,1
	blt          cr6,$LN2@DoCave
	bnelr        cr6
; Line 226
	lis          r10,?DmSetMemoryD@@3P6AJPAXKPBXPAK@ZA
	mr           r5,r4
	mr           r4,r11
	li           r6,0
	lwz          r11,?DmSetMemoryD@@3P6AJPAXKPBXPAK@ZA(r10)
	mtctr        r11
	bctr
$LN2@DoCave:
; Line 222
	mr           r5,r11
	b            memcpy
$LN3@DoCave:
	blr
; End code for function: ?DoCave@@YAXKPAKI@Z
?DoCave@@YAXKPAKI@Z ENDP
							; DoCave
PUBLIC	?Fastcave1@@YAXPAKQAKI@Z			; Fastcave1
; Function compile flags: /Ogsu

	.code

?Fastcave1@@YAXPAKQAKI@Z PROC NEAR			; Fastcave1, COMDAT

; Begin code for function: ?Fastcave1@@YAXPAKQAKI@Z
; Line 233
	lis          r10,?KrnlType@@3KA
	mr           r11,r5
	lwz          r10,?KrnlType@@3KA(r10)
	cmplwi       cr6,r10,1
	beq          cr6,$LN2@Fastcave1
; Line 234
	b            memcpy
$LN2@Fastcave1:
; Line 236
	lis          r10,?DmSetMemoryD@@3P6AJPAXKPBXPAK@ZA
	mr           r5,r4
	mr           r4,r11
	li           r6,0
	lwz          r11,?DmSetMemoryD@@3P6AJPAXKPBXPAK@ZA(r10)
	mtctr        r11
	bctr
; End code for function: ?Fastcave1@@YAXPAKQAKI@Z
?Fastcave1@@YAXPAKQAKI@Z ENDP
							; Fastcave1
PUBLIC	?Caveme@@YAXKPAXE@Z				; Caveme
EXTRN	?patchInJumpr31@@YAXPAKKH@Z:PROC		; patchInJumpr31
EXTRN	?patchInJumpr30@@YAXPAKKH@Z:PROC		; patchInJumpr30
EXTRN	?patchInJumpr29@@YAXPAKKH@Z:PROC		; patchInJumpr29
EXTRN	?patchInJumpr28@@YAXPAKKH@Z:PROC		; patchInJumpr28
EXTRN	?patchInJumpr27@@YAXPAKKH@Z:PROC		; patchInJumpr27
EXTRN	?patchInJumpr26@@YAXPAKKH@Z:PROC		; patchInJumpr26
EXTRN	?patchInJumpr25@@YAXPAKKH@Z:PROC		; patchInJumpr25
EXTRN	?patchInJumpr24@@YAXPAKKH@Z:PROC		; patchInJumpr24
EXTRN	?patchInJumpr23@@YAXPAKKH@Z:PROC		; patchInJumpr23
EXTRN	?patchInJumpr22@@YAXPAKKH@Z:PROC		; patchInJumpr22
EXTRN	?patchInJumpr21@@YAXPAKKH@Z:PROC		; patchInJumpr21
EXTRN	?patchInJumpr20@@YAXPAKKH@Z:PROC		; patchInJumpr20
EXTRN	?patchInJumpr19@@YAXPAKKH@Z:PROC		; patchInJumpr19
EXTRN	?patchInJumpr18@@YAXPAKKH@Z:PROC		; patchInJumpr18
EXTRN	?patchInJumpr17@@YAXPAKKH@Z:PROC		; patchInJumpr17
EXTRN	?patchInJumpr16@@YAXPAKKH@Z:PROC		; patchInJumpr16
EXTRN	?patchInJumpr15@@YAXPAKKH@Z:PROC		; patchInJumpr15
EXTRN	?patchInJumpr14@@YAXPAKKH@Z:PROC		; patchInJumpr14
EXTRN	?patchInJumpr13@@YAXPAKKH@Z:PROC		; patchInJumpr13
EXTRN	?patchInJumpr12@@YAXPAKKH@Z:PROC		; patchInJumpr12
EXTRN	?patchInJumpr11@@YAXPAKKH@Z:PROC		; patchInJumpr11
EXTRN	?patchInJumpr10@@YAXPAKKH@Z:PROC		; patchInJumpr10
EXTRN	?patchInJumpr9@@YAXPAKKH@Z:PROC			; patchInJumpr9
EXTRN	?patchInJumpr8@@YAXPAKKH@Z:PROC			; patchInJumpr8
EXTRN	?patchInJumpr7@@YAXPAKKH@Z:PROC			; patchInJumpr7
EXTRN	?patchInJumpr6@@YAXPAKKH@Z:PROC			; patchInJumpr6
EXTRN	?patchInJumpr5@@YAXPAKKH@Z:PROC			; patchInJumpr5
EXTRN	?patchInJumpr4@@YAXPAKKH@Z:PROC			; patchInJumpr4
EXTRN	?patchInJumpr3@@YAXPAKKH@Z:PROC			; patchInJumpr3
EXTRN	?patchInJumpr2@@YAXPAKKH@Z:PROC			; patchInJumpr2
EXTRN	?patchInJumpr1@@YAXPAKKH@Z:PROC			; patchInJumpr1
EXTRN	?patchInJumpr0@@YAXPAKKH@Z:PROC			; patchInJumpr0
EXTRN	__restgprlr_25:PROC
EXTRN	__savegprlr_25:PROC
;	COMDAT .pdata
.pdata	SEGMENT
$T74319	DD	?Caveme@@YAXKPAXE@Z
	DD	040012b03H
; Function compile flags: /Ogsu

	.code

?Caveme@@YAXKPAXE@Z PROC NEAR				; Caveme, COMDAT

; Begin code for function: ?Caveme@@YAXKPAXE@Z
; Line 242
	mflr         r12
	bl           __savegprlr_25
	stwu         r1,-90h(r1)
.endprolog
$M74317:
; Line 243
	lis          r11,?cavedata@@3PAKA
	mr           r25,r3
	mr           r30,r4
	clrlwi.      r29,r5,24
	addi         r31,r11,?cavedata@@3PAKA
	bne          $LN32@Caveme
; Line 244
	mr           r3,r31
	li           r5,0
	bl           ?patchInJumpr0@@YAXPAKKH@Z
$LN32@Caveme:
; Line 246
	cmplwi       cr6,r29,1
	bne          cr6,$LN31@Caveme
; Line 247
	mr           r3,r31
	li           r5,0
	mr           r4,r30
	bl           ?patchInJumpr1@@YAXPAKKH@Z
$LN31@Caveme:
; Line 249
	cmplwi       cr6,r29,2
	bne          cr6,$LN30@Caveme
; Line 250
	mr           r3,r31
	li           r5,0
	mr           r4,r30
	bl           ?patchInJumpr2@@YAXPAKKH@Z
$LN30@Caveme:
; Line 252
	cmplwi       cr6,r29,3
	bne          cr6,$LN29@Caveme
; Line 253
	mr           r3,r31
	li           r5,0
	mr           r4,r30
	bl           ?patchInJumpr3@@YAXPAKKH@Z
$LN29@Caveme:
; Line 255
	cmplwi       cr6,r29,4
	bne          cr6,$LN28@Caveme
; Line 256
	mr           r3,r31
	li           r5,0
	mr           r4,r30
	bl           ?patchInJumpr4@@YAXPAKKH@Z
$LN28@Caveme:
; Line 258
	cmplwi       cr6,r29,5
	bne          cr6,$LN27@Caveme
; Line 259
	mr           r3,r31
	li           r5,0
	mr           r4,r30
	bl           ?patchInJumpr5@@YAXPAKKH@Z
$LN27@Caveme:
; Line 261
	cmplwi       cr6,r29,6
	bne          cr6,$LN26@Caveme
; Line 262
	mr           r3,r31
	li           r5,0
	mr           r4,r30
	bl           ?patchInJumpr6@@YAXPAKKH@Z
$LN26@Caveme:
; Line 264
	cmplwi       cr6,r29,7
	bne          cr6,$LN25@Caveme
; Line 265
	mr           r3,r31
	li           r5,0
	mr           r4,r30
	bl           ?patchInJumpr7@@YAXPAKKH@Z
$LN25@Caveme:
; Line 267
	cmplwi       cr6,r29,8
	bne          cr6,$LN24@Caveme
; Line 268
	mr           r3,r31
	li           r5,0
	mr           r4,r30
	bl           ?patchInJumpr8@@YAXPAKKH@Z
$LN24@Caveme:
; Line 270
	cmplwi       cr6,r29,9
	bne          cr6,$LN23@Caveme
; Line 271
	mr           r3,r31
	li           r5,0
	mr           r4,r30
	bl           ?patchInJumpr9@@YAXPAKKH@Z
$LN23@Caveme:
; Line 273
	cmplwi       cr6,r29,10		; 0Ah
	bne          cr6,$LN22@Caveme
; Line 274
	mr           r3,r31
	li           r5,0
	mr           r4,r30
	bl           ?patchInJumpr10@@YAXPAKKH@Z
$LN22@Caveme:
; Line 276
	cmplwi       cr6,r29,11		; 0Bh
	bne          cr6,$LN21@Caveme
; Line 277
	mr           r3,r31
	li           r5,0
	mr           r4,r30
	bl           ?patchInJumpr11@@YAXPAKKH@Z
$LN21@Caveme:
; Line 279
	cmplwi       cr6,r29,12		; 0Ch
	bne          cr6,$LN20@Caveme
; Line 280
	mr           r3,r31
	li           r5,0
	mr           r4,r30
	bl           ?patchInJumpr12@@YAXPAKKH@Z
$LN20@Caveme:
; Line 282
	cmplwi       cr6,r29,13		; 0Dh
	bne          cr6,$LN19@Caveme
; Line 283
	mr           r3,r31
	li           r5,0
	mr           r4,r30
	bl           ?patchInJumpr13@@YAXPAKKH@Z
$LN19@Caveme:
; Line 285
	cmplwi       cr6,r29,14		; 0Eh
	bne          cr6,$LN18@Caveme
; Line 286
	mr           r3,r31
	li           r5,0
	mr           r4,r30
	bl           ?patchInJumpr14@@YAXPAKKH@Z
$LN18@Caveme:
; Line 288
	cmplwi       cr6,r29,15		; 0Fh
	bne          cr6,$LN17@Caveme
; Line 289
	mr           r3,r31
	li           r5,0
	mr           r4,r30
	bl           ?patchInJumpr15@@YAXPAKKH@Z
$LN17@Caveme:
; Line 291
	cmplwi       cr6,r29,16		; 10h
	bne          cr6,$LN16@Caveme
; Line 292
	mr           r3,r31
	li           r5,0
	mr           r4,r30
	bl           ?patchInJumpr16@@YAXPAKKH@Z
$LN16@Caveme:
; Line 294
	cmplwi       cr6,r29,17		; 11h
	bne          cr6,$LN15@Caveme
; Line 295
	mr           r3,r31
	li           r5,0
	mr           r4,r30
	bl           ?patchInJumpr17@@YAXPAKKH@Z
$LN15@Caveme:
; Line 297
	cmplwi       cr6,r29,18		; 12h
	bne          cr6,$LN14@Caveme
; Line 298
	mr           r3,r31
	li           r5,0
	mr           r4,r30
	bl           ?patchInJumpr18@@YAXPAKKH@Z
$LN14@Caveme:
; Line 300
	cmplwi       cr6,r29,19		; 13h
	bne          cr6,$LN13@Caveme
; Line 301
	mr           r3,r31
	li           r5,0
	mr           r4,r30
	bl           ?patchInJumpr19@@YAXPAKKH@Z
$LN13@Caveme:
; Line 303
	cmplwi       cr6,r29,20		; 14h
	bne          cr6,$LN12@Caveme
; Line 304
	mr           r3,r31
	li           r5,0
	mr           r4,r30
	bl           ?patchInJumpr20@@YAXPAKKH@Z
$LN12@Caveme:
; Line 306
	cmplwi       cr6,r29,21		; 15h
	bne          cr6,$LN11@Caveme
; Line 307
	mr           r3,r31
	li           r5,0
	mr           r4,r30
	bl           ?patchInJumpr21@@YAXPAKKH@Z
$LN11@Caveme:
; Line 309
	cmplwi       cr6,r29,22		; 16h
	bne          cr6,$LN10@Caveme
; Line 310
	mr           r3,r31
	li           r5,0
	mr           r4,r30
	bl           ?patchInJumpr22@@YAXPAKKH@Z
$LN10@Caveme:
; Line 312
	cmplwi       cr6,r29,23		; 17h
	bne          cr6,$LN9@Caveme
; Line 313
	mr           r3,r31
	li           r5,0
	mr           r4,r30
	bl           ?patchInJumpr23@@YAXPAKKH@Z
$LN9@Caveme:
; Line 315
	cmplwi       cr6,r29,24		; 18h
	bne          cr6,$LN8@Caveme
; Line 316
	mr           r3,r31
	li           r5,0
	mr           r4,r30
	bl           ?patchInJumpr24@@YAXPAKKH@Z
$LN8@Caveme:
; Line 318
	cmplwi       cr6,r29,25		; 19h
	bne          cr6,$LN7@Caveme
; Line 319
	mr           r3,r31
	li           r5,0
	mr           r4,r30
	bl           ?patchInJumpr25@@YAXPAKKH@Z
$LN7@Caveme:
; Line 321
	cmplwi       cr6,r29,26		; 1Ah
	bne          cr6,$LN6@Caveme
; Line 322
	mr           r3,r31
	li           r5,0
	mr           r4,r30
	bl           ?patchInJumpr26@@YAXPAKKH@Z
$LN6@Caveme:
; Line 324
	cmplwi       cr6,r29,27		; 1Bh
	bne          cr6,$LN5@Caveme
; Line 325
	mr           r3,r31
	li           r5,0
	mr           r4,r30
	bl           ?patchInJumpr27@@YAXPAKKH@Z
$LN5@Caveme:
; Line 327
	cmplwi       cr6,r29,28		; 1Ch
	bne          cr6,$LN4@Caveme
; Line 328
	mr           r3,r31
	li           r5,0
	mr           r4,r30
	bl           ?patchInJumpr28@@YAXPAKKH@Z
$LN4@Caveme:
; Line 330
	cmplwi       cr6,r29,29		; 1Dh
	bne          cr6,$LN3@Caveme
; Line 331
	mr           r3,r31
	li           r5,0
	mr           r4,r30
	bl           ?patchInJumpr29@@YAXPAKKH@Z
$LN3@Caveme:
; Line 333
	cmplwi       cr6,r29,30		; 1Eh
	bne          cr6,$LN2@Caveme
; Line 334
	mr           r3,r31
	li           r5,0
	mr           r4,r30
	bl           ?patchInJumpr30@@YAXPAKKH@Z
$LN2@Caveme:
; Line 336
	cmplwi       cr6,r29,31		; 1Fh
	bne          cr6,$LN1@Caveme
; Line 337
	mr           r3,r31
	li           r5,0
	mr           r4,r30
	bl           ?patchInJumpr31@@YAXPAKKH@Z
$LN1@Caveme:
; Line 344
	lis          r27,?KrnlType@@3KA
	lis          r30,?addy2@@3PAKA
	lis          r29,?addy3@@3PAKA
	lis          r26,?addy4@@3PAKA
	lis          r7,?addy1@@3PAKA
	lwz          r8,?KrnlType@@3KA(r27)
	addi         r11,r25,4
	addi         r10,r25,8
	addi         r9,r25,12		; 0Ch
	stw          r11,?addy2@@3PAKA(r30)
	lis          r28,?DmSetMemoryD@@3P6AJPAXKPBXPAK@ZA
	stw          r10,?addy3@@3PAKA(r29)
	stw          r25,?addy1@@3PAKA(r7)
	cmplwi       cr6,r8,1
	stw          r9,?addy4@@3PAKA(r26)
	beq          cr6,$LN36@Caveme
	lbz          r10,0(r31)
	mr           r11,r31
	stb          r10,0(r25)
	lbz          r10,1(r31)
	stb          r10,1(r25)
	lbz          r10,2(r31)
	stb          r10,2(r25)
	lbz          r11,3(r11)
	stb          r11,3(r25)
	b            $LN35@Caveme
$LN36@Caveme:
	lwz          r11,?DmSetMemoryD@@3P6AJPAXKPBXPAK@ZA(r28)
	mr           r5,r31
	li           r6,0
	li           r4,4
	mr           r3,r25
	mtctr        r11
	bctrl
$LN35@Caveme:
; Line 345
	lwz          r11,?KrnlType@@3KA(r27)
	cmplwi       cr6,r11,1
	beq          cr6,$LN40@Caveme
	lwz          r11,?addy2@@3PAKA(r30)
	addi         r10,r31,4
	lbz          r10,4(r31)
	mr           r9,r11
	stb          r10,0(r11)
	lbz          r11,5(r31)
	stb          r11,1(r9)
	lbz          r11,6(r31)
	stb          r11,2(r9)
	lbz          r11,7(r31)
	stb          r11,3(r9)
	b            $LN39@Caveme
$LN40@Caveme:
	lwz          r11,?DmSetMemoryD@@3P6AJPAXKPBXPAK@ZA(r28)
	li           r6,0
	li           r4,4
	lwz          r3,?addy2@@3PAKA(r30)
	addi         r5,r31,4
	mtctr        r11
	bctrl
$LN39@Caveme:
; Line 346
	lwz          r11,?KrnlType@@3KA(r27)
	cmplwi       cr6,r11,1
	beq          cr6,$LN44@Caveme
	lwz          r11,?addy3@@3PAKA(r29)
	addi         r10,r31,8
	lbz          r10,8(r31)
	mr           r9,r11
	stb          r10,0(r11)
	lbz          r11,9(r31)
	stb          r11,1(r9)
	lbz          r11,0Ah(r31)
	stb          r11,2(r9)
	lbz          r11,0Bh(r31)
	stb          r11,3(r9)
	b            $LN43@Caveme
$LN44@Caveme:
	lwz          r11,?DmSetMemoryD@@3P6AJPAXKPBXPAK@ZA(r28)
	li           r6,0
	li           r4,4
	lwz          r3,?addy3@@3PAKA(r29)
	addi         r5,r31,8
	mtctr        r11
	bctrl
$LN43@Caveme:
; Line 347
	lwz          r11,?KrnlType@@3KA(r27)
	cmplwi       cr6,r11,1
	beq          cr6,$LN48@Caveme
	addi         r10,r31,12		; 0Ch
	lwz          r11,?addy4@@3PAKA(r26)
	lbz          r10,0Ch(r31)
	mr           r9,r11
	stb          r10,0(r11)
	lbz          r11,0Dh(r31)
	stb          r11,1(r9)
	lbz          r11,0Eh(r31)
	stb          r11,2(r9)
	lbz          r11,0Fh(r31)
	stb          r11,3(r9)
	b            $LN47@Caveme
$LN48@Caveme:
	lwz          r11,?DmSetMemoryD@@3P6AJPAXKPBXPAK@ZA(r28)
	li           r6,0
	li           r4,4
	lwz          r3,?addy4@@3PAKA(r26)
	addi         r5,r31,12		; 0Ch
	mtctr        r11
	bctrl
$LN47@Caveme:
; Line 348
	addi         r1,r1,144		; 90h
	b            __restgprlr_25
$M74318:
; End code for function: ?Caveme@@YAXKPAXE@Z
?Caveme@@YAXKPAXE@Z ENDP
							; Caveme
PUBLIC	?PatchInJump@@YAXKKEE@Z				; PatchInJump
EXTRN	__restgprlr_28:PROC
EXTRN	__savegprlr_28:PROC
;	COMDAT .pdata
.pdata	SEGMENT
$T74328	DD	?PatchInJump@@YAXKKEE@Z
	DD	040002103H
; Function compile flags: /Ogsu

	.code

?PatchInJump@@YAXKKEE@Z	PROC NEAR			; PatchInJump, COMDAT

; Begin code for function: ?PatchInJump@@YAXKKEE@Z
; Line 351
	mflr         r12
	bl           __savegprlr_28
	stwu         r1,-80h(r1)
.endprolog
$M74326:
; Line 358
	srwi         r10,r4,16
	rlwinm       r11,r5,21,3,10
	mr           r30,r4
; Line 361
	or           r11,r11,r10
	mr           r31,r3
	oris         r4,r11,15360		; 3C00h
	mr           r29,r6
	clrlwi       r28,r5,24
	bl           SetDWORD
; Line 367
	lis          r11,33		; 21h
	clrlwi       r10,r30,16
	mullw        r11,r28,r11
	or           r11,r11,r10
	addi         r3,r31,4
	oris         r4,r11,24576		; 6000h
	bl           SetDWORD
	lis          r4,32105		; 7D69h
	addi         r3,r31,8
	ori          r4,r4,934		; 3A6h
	bl           SetDWORD
	clrlwi.      r11,r29,24
	lis          r4,20096		; 4E80h
	addi         r3,r31,12		; 0Ch
	beq          $LN2@PatchInJum
	ori          r4,r4,1057		; 421h
	b            $LN5@PatchInJum
$LN2@PatchInJum:
	ori          r4,r4,1056		; 420h
$LN5@PatchInJum:
	bl           SetDWORD
; Line 369
	addi         r1,r1,128		; 80h
	b            __restgprlr_28
$M74327:
; End code for function: ?PatchInJump@@YAXKKEE@Z
?PatchInJump@@YAXKKEE@Z ENDP
							; PatchInJump
PUBLIC	?GetAddr@@YAKKKPAKKK@Z				; GetAddr
;	COMDAT .pdata
.pdata	SEGMENT
$T74341	DD	?GetAddr@@YAKKKPAKKK@Z
	DD	040002e03H
; Function compile flags: /Ogsu

	.code

?GetAddr@@YAKKKPAKKK@Z PROC NEAR				; GetAddr, COMDAT

; Begin code for function: ?GetAddr@@YAKKKPAKKK@Z
; Line 387
	mflr         r12
	bl           __savegprlr_25
	stwu         r1,-90h(r1)
.endprolog
$M74339:
	mr           r28,r4
	mr           r27,r5
	mr           r29,r6
	mr           r25,r7
; Line 390
	mr           r31,r3
; Line 392
	cmplw        cr6,r3,r4
	bge          cr6,$LN9@GetAddr
; Line 390
	subf         r30,r5,r3
	lis          r26,1
$LL10@GetAddr:						; Start of loop
; Line 394
	clrlwi.      r11,r31,16
	bne          $LN7@GetAddr
; Line 396
	mr           r3,r31
	bl           MmIsAddressValid
	cmplwi       r3,0
	bne          $LN7@GetAddr
; Line 398
	add          r31,r31,r26
	add          r30,r30,r26
; Line 399
	b            $LN19@GetAddr
$LN7@GetAddr:
; Line 403
	li           r10,0
	cmplwi       cr6,r29,0
	beq          cr6,$LN16@GetAddr
	mr           r11,r27
$LL6@GetAddr:						; Start of loop
; Line 405
	lwzx         r9,r30,r11
	lwz          r8,0(r11)
	cmplw        cr6,r9,r8
	bne          cr6,$LN16@GetAddr
; Line 403
	addi         r10,r10,1
	addi         r11,r11,4
	cmplw        cr6,r10,r29
	blt          cr6,$LL6@GetAddr
$LN16@GetAddr:
; Line 409
	cmplw        cr6,r10,r29
	bne          cr6,$LN1@GetAddr
; Line 411
	addic.       r25,r25,-1		; 0FFFFh
; Line 412
	beq          $LN17@GetAddr
$LN1@GetAddr:
; Line 416
	addi         r31,r31,4
	addi         r30,r30,4
$LN19@GetAddr:
; Line 392
	cmplw        cr6,r31,r28
	blt          cr6,$LL10@GetAddr
$LN9@GetAddr:
; Line 418
	li           r3,0
$LN11@GetAddr:
; Line 419
	addi         r1,r1,144		; 90h
	b            __restgprlr_25
$LN17@GetAddr:
; Line 413
	mr           r3,r31
	b            $LN11@GetAddr
$M74340:
; End code for function: ?GetAddr@@YAKKKPAKKK@Z
?GetAddr@@YAKKKPAKKK@Z ENDP
							; GetAddr
PUBLIC	?btodw@@YAKPAE@Z				; btodw
; Function compile flags: /Ogsu

	.code

?btodw@@YAKPAE@Z PROC NEAR				; btodw, COMDAT

; Begin code for function: ?btodw@@YAKPAE@Z
; Line 428
	lbz          r11,0(r3)
	lbz          r10,1(r3)
	rotlwi       r11,r11,8
	lbz          r9,2(r3)
	lbz          r8,3(r3)
	or           r11,r11,r10
	slwi         r11,r11,8
	or           r11,r11,r9
	slwi         r11,r11,8
	or           r3,r11,r8
; Line 429
	blr
; End code for function: ?btodw@@YAKPAE@Z
?btodw@@YAKPAE@Z ENDP
							; btodw
PUBLIC	??_C@_1DI@DNLOJBHL@?5?$AAM?$AAo?$AAr?$AAe?$AA?5?$AAa?$AAt?$AA?5?$AAT?$AA3?$AAf?$AAu?$AAr?$AAy?$AAG?$AAa?$AAm?$AAi?$AAn?$AAg?$AA?4?$AAc?$AAo?$AA?4?$AAu?$AAk?$AA?$AA?$AA@ ; `string'
PUBLIC	??_C@_1PC@OEBBOFAD@A?$AAl?$AAo?$AAn?$AAe?$AA?5?$AAi?$AAn?$AA?5?$AAt?$AAh?$AAe?$AA?5?$AAD?$AAa?$AAr?$AAk?$AA?5?$AA?$CL?$AA?5?$AA4?$AA?$AN?$AA?6?$AA?$HO?$AA?$HO?$AA?$HO?$AA?$HO?$AA?$HO?$AA?$HO?$AA?$HO?$AA?$HO?$AA?$HO?$AA@ ; `string'
PUBLIC	?ShowTrainerMain@@YAXXZ				; ShowTrainerMain
;	COMDAT .pdata
; File c:\users\t3fur\desktop\trainer engine t3\trainer engine t3\trainer\alone in the dark.h
.pdata	SEGMENT
$T74349	DD	?ShowTrainerMain@@YAXXZ
	DD	040001e03H
;	COMDAT ??_C@_1DI@DNLOJBHL@?5?$AAM?$AAo?$AAr?$AAe?$AA?5?$AAa?$AAt?$AA?5?$AAT?$AA3?$AAf?$AAu?$AAr?$AAy?$AAG?$AAa?$AAm?$AAi?$AAn?$AAg?$AA?4?$AAc?$AAo?$AA?4?$AAu?$AAk?$AA?$AA?$AA@
.rdata	SEGMENT
??_C@_1DI@DNLOJBHL@?5?$AAM?$AAo?$AAr?$AAe?$AA?5?$AAa?$AAt?$AA?5?$AAT?$AA3?$AAf?$AAu?$AAr?$AAy?$AAG?$AAa?$AAm?$AAi?$AAn?$AAg?$AA?4?$AAc?$AAo?$AA?4?$AAu?$AAk?$AA?$AA?$AA@ DB 00H
	DB	' ', 00H, 'M', 00H, 'o', 00H, 'r', 00H, 'e', 00H, ' ', 00H, 'a'
	DB	00H, 't', 00H, ' ', 00H, 'T', 00H, '3', 00H, 'f', 00H, 'u', 00H
	DB	'r', 00H, 'y', 00H, 'G', 00H, 'a', 00H, 'm', 00H, 'i', 00H, 'n'
	DB	00H, 'g', 00H, '.', 00H, 'c', 00H, 'o', 00H, '.', 00H, 'u', 00H
	DB	'k', 00H, 00H				; `string'
;	COMDAT ??_C@_1PC@OEBBOFAD@A?$AAl?$AAo?$AAn?$AAe?$AA?5?$AAi?$AAn?$AA?5?$AAt?$AAh?$AAe?$AA?5?$AAD?$AAa?$AAr?$AAk?$AA?5?$AA?$CL?$AA?5?$AA4?$AA?$AN?$AA?6?$AA?$HO?$AA?$HO?$AA?$HO?$AA?$HO?$AA?$HO?$AA?$HO?$AA?$HO?$AA?$HO?$AA?$HO?$AA@
.rdata	SEGMENT
??_C@_1PC@OEBBOFAD@A?$AAl?$AAo?$AAn?$AAe?$AA?5?$AAi?$AAn?$AA?5?$AAt?$AAh?$AAe?$AA?5?$AAD?$AAa?$AAr?$AAk?$AA?5?$AA?$CL?$AA?5?$AA4?$AA?$AN?$AA?6?$AA?$HO?$AA?$HO?$AA?$HO?$AA?$HO?$AA?$HO?$AA?$HO?$AA?$HO?$AA?$HO?$AA?$HO?$AA@ DB 00H
	DB	'A', 00H, 'l', 00H, 'o', 00H, 'n', 00H, 'e', 00H, ' ', 00H, 'i'
	DB	00H, 'n', 00H, ' ', 00H, 't', 00H, 'h', 00H, 'e', 00H, ' ', 00H
	DB	'D', 00H, 'a', 00H, 'r', 00H, 'k', 00H, ' ', 00H, '+', 00H, ' '
	DB	00H, '4', 00H, 0dH, 00H, 0aH, 00H, '~', 00H, '~', 00H, '~', 00H
	DB	'~', 00H, '~', 00H, '~', 00H, '~', 00H, '~', 00H, '~', 00H, '~'
	DB	00H, '~', 00H, '~', 00H, '~', 00H, '~', 00H, '~', 00H, '~', 00H
	DB	'~', 00H, '~', 00H, '~', 00H, '~', 00H, '~', 00H, '~', 00H, '~'
	DB	00H, '~', 00H, '~', 00H, 0dH, 00H, 0aH, 00H, 'V', 00H, 'i', 00H
	DB	'e', 00H, 'w', 00H, ' ', 00H, 'A', 00H, 'v', 00H, 'a', 00H, 'i'
	DB	00H, 'l', 00H, 'a', 00H, 'b', 00H, 'l', 00H, 'e', 00H, ' ', 00H
	DB	'C', 00H, 'o', 00H, 'd', 00H, 'e', 00H, 's', 00H, ':', 00H, ' '
	DB	00H, 'D', 00H, 'P', 00H, 'A', 00H, 'D', 00H, '-', 00H, 'D', 00H
	DB	'O', 00H, 'W', 00H, 'N', 00H, '(', 00H, 'x', 00H, '4', 00H, ')'
	DB	00H, 0dH, 00H, 0aH, 00H, 'A', 00H, 'c', 00H, 't', 00H, 'i', 00H
	DB	'v', 00H, 'a', 00H, 't', 00H, 'e', 00H, ' ', 00H, 'A', 00H, 'l'
	DB	00H, 'l', 00H, ' ', 00H, 'C', 00H, 'o', 00H, 'd', 00H, 'e', 00H
	DB	's', 00H, ':', 00H, ' ', 00H, 'D', 00H, 'P', 00H, 'A', 00H, 'D'
	DB	00H, '-', 00H, 'U', 00H, 'P', 00H, '(', 00H, 'x', 00H, '4', 00H
	DB	')', 00H, 0dH, 00H, 0aH, 00H, 00H		; `string'
; Function compile flags: /Ogsu

	.code

?ShowTrainerMain@@YAXXZ	PROC NEAR			; ShowTrainerMain, COMDAT

; Begin code for function: ?ShowTrainerMain@@YAXXZ
; Line 106
	mflr         r12
	stw          r12,-8(r1)
	stwu         r1,-60h(r1)
.endprolog
$M74347:
; Line 107
	lis          r9,?g_strButtons@@3PAPB_WA
	lis          r8,??_C@_1PC@OEBBOFAD@A?$AAl?$AAo?$AAn?$AAe?$AA?5?$AAi?$AAn?$AA?5?$AAt?$AAh?$AAe?$AA?5?$AAD?$AAa?$AAr?$AAk?$AA?5?$AA?$CL?$AA?5?$AA4?$AA?$AN?$AA?6?$AA?$HO?$AA?$HO?$AA?$HO?$AA?$HO?$AA?$HO?$AA?$HO?$AA?$HO?$AA?$HO?$AA?$HO?$AA@
	lis          r6,??_C@_1DI@DNLOJBHL@?5?$AAM?$AAo?$AAr?$AAe?$AA?5?$AAa?$AAt?$AA?5?$AAT?$AA3?$AAf?$AAu?$AAr?$AAy?$AAG?$AAa?$AAm?$AAi?$AAn?$AAg?$AA?4?$AAc?$AAo?$AA?4?$AAu?$AAk?$AA?$AA?$AA@
	lis          r11,?g_xol@@3U_XOVERLAPPED@@A
	lis          r10,?g_mb_result@@3U_MESSAGEBOX_RESULT@@A
	addi         r11,r11,?g_xol@@3U_XOVERLAPPED@@A
	addi         r7,r9,?g_strButtons@@3PAPB_WA
	addi         r5,r8,??_C@_1PC@OEBBOFAD@A?$AAl?$AAo?$AAn?$AAe?$AA?5?$AAi?$AAn?$AA?5?$AAt?$AAh?$AAe?$AA?5?$AAD?$AAa?$AAr?$AAk?$AA?5?$AA?$CL?$AA?5?$AA4?$AA?$AN?$AA?6?$AA?$HO?$AA?$HO?$AA?$HO?$AA?$HO?$AA?$HO?$AA?$HO?$AA?$HO?$AA?$HO?$AA?$HO?$AA@
	stw          r11,54h(r1)
	addi         r4,r6,??_C@_1DI@DNLOJBHL@?5?$AAM?$AAo?$AAr?$AAe?$AA?5?$AAa?$AAt?$AA?5?$AAT?$AA3?$AAf?$AAu?$AAr?$AAy?$AAG?$AAa?$AAm?$AAi?$AAn?$AAg?$AA?4?$AAc?$AAo?$AA?4?$AAu?$AAk?$AA?$AA?$AA@
	addi         r10,r10,?g_mb_result@@3U_MESSAGEBOX_RESULT@@A
	lis          r9,1
	li           r8,0
	li           r6,1
	li           r3,0
	bl           XShowMessageBoxUI
; Line 112
	lis          r11,?Prompt@@3KA
	lis          r4,32126		; 7D7Eh
	ori          r4,r4,23060		; 5A14h
	stw          r3,?Prompt@@3KA(r11)
	lis          r3,-32187		; 8245h
	ori          r3,r3,6932		; 1B14h
	bl           SetDWORD
; Line 113
	addi         r1,r1,96		; 60h
	lwz          r12,-8(r1)
	mtlr         r12
	blr
$M74348:
; End code for function: ?ShowTrainerMain@@YAXXZ
?ShowTrainerMain@@YAXXZ ENDP
							; ShowTrainerMain
PUBLIC	__real@3dcccccd
PUBLIC	__real@42f00000
PUBLIC	__real@43700000
PUBLIC	__real@3f800000
PUBLIC	__real@3acccccd
PUBLIC	__real@43480000
PUBLIC	__real@425c0000
PUBLIC	__real@44200000
PUBLIC	?initialize_data@@YAXXZ				; initialize_data
EXTRN	rand:PROC
EXTRN	srand:PROC
EXTRN	GetTickCount:PROC
EXTRN	__restfpr_22:PROC
EXTRN	__savefpr_22:PROC
;	COMDAT .pdata
; File c:\program files (x86)\microsoft xbox 360 sdk\include\xbox\math.h
.pdata	SEGMENT
$T74399	DD	?initialize_data@@YAXXZ
	DD	040007f05H
;	COMDAT __real@3dcccccd
.rdata	SEGMENT
__real@3dcccccd DD 03dcccccdr			; 0.1
;	COMDAT __real@42f00000
.rdata	SEGMENT
__real@42f00000 DD 042f00000r			; 120
;	COMDAT __real@43700000
.rdata	SEGMENT
__real@43700000 DD 043700000r			; 240
;	COMDAT __real@3f800000
.rdata	SEGMENT
__real@3f800000 DD 03f800000r			; 1
;	COMDAT __real@3acccccd
.rdata	SEGMENT
__real@3acccccd DD 03acccccdr			; 0.0015625
;	COMDAT __real@43480000
.rdata	SEGMENT
__real@43480000 DD 043480000r			; 200
;	COMDAT __real@425c0000
.rdata	SEGMENT
__real@425c0000 DD 0425c0000r			; 55
;	COMDAT __real@44200000
.rdata	SEGMENT
__real@44200000 DD 044200000r			; 640
; Function compile flags: /Ogsu

	.code
tv440 = 80						; size = 8
tv392 = 80						; size = 8
tv429 = 88						; size = 8
tv424 = 88						; size = 8
tv420 = 88						; size = 8
tv402 = 88						; size = 8

?initialize_data@@YAXXZ	PROC NEAR			; initialize_data, COMDAT

; Begin code for function: ?initialize_data@@YAXXZ
; File c:\users\t3fur\desktop\trainer engine t3\trainer engine t3\trainer\hudd3d.h
; Line 48
	mflr         r12
	bl           __savegprlr_28
	addi         r12,r1,-40		; 0FFD8h
	bl           __savefpr_22
	stwu         r1,-0E0h(r1)
.endprolog
$M74397:
; Line 54
	lis          r11,?sine_data@@3PAUpoint_vertex@@A
	lis          r10,__real@44200000
	addi         r29,r11,?sine_data@@3PAUpoint_vertex@@A
	lis          r11,__real@425c0000
	lis          r9,__real@43480000
	lis          r8,__real@3acccccd
	lfs          fr25,__real@44200000(r10)
	lis          r7,__real@3f800000
	lis          r6,__real@43700000
	lfs          fr24,__real@425c0000(r11)
	lis          r11,__real@42f00000
	lis          r10,__real@3dcccccd
	lfs          fr31,__real@43480000(r9)
	lfs          fr29,__real@3acccccd(r8)
	li           r30,0
	lfs          fr30,__real@3f800000(r7)
	addi         r31,r29,4
	lfs          fr26,__real@43700000(r6)
	lfs          fr27,__real@42f00000(r11)
	lfs          fr28,__real@3dcccccd(r10)
$LL6@initialize:					; Start of loop
; Line 56
	extsw        r11,r30
	std          r11,50h(r1)
	lfd          fr0,50h(r1)
	fcfid        fr0,fr0
	frsp         fr23,fr0
; Line 58
	stfs         fr23,-4(r31)
; Line 59
	fmuls        fr1,fr23,fr28
	bl           sin
	frsp         fr22,fr1
; Line 61
	stfs         fr30,4(r31)
; Line 64
	fmuls        fr0,fr23,fr29
	stfs         fr30,8(r31)
	fmadds       fr13,fr22,fr27,fr26
	stfs         fr13,0(r31)
	fmuls        fr1,fr0,fr31
	bl           ceil
; Line 65
	fsubs        fr0,fr25,fr23
	fctiwz       fr13,fr1
	stfd         fr13,58h(r1)
	lbz          r11,5Fh(r1)
	addi         r28,r11,55		; 37h
	fmuls        fr0,fr0,fr29
	fmuls        fr1,fr0,fr31
	bl           ceil
; Line 67
	fabs         fr0,fr22
; Line 71
	lis          r10,-1		; 0FFFFh
	fctiwz       fr13,fr1
	stfd         fr13,58h(r1)
	lbz          r11,5Fh(r1)
	addi         r11,r11,55		; 37h
	fmadds       fr0,fr0,fr31,fr24
	clrlwi       r11,r11,24
	addi         r9,r29,12804		; 3204h
	addi         r30,r30,1
	fctiwz       fr0,fr0
	stfd         fr0,58h(r1)
	lbz          r8,5Fh(r1)
	rlwimi       r10,r8,8,16,23
	or           r11,r11,r10
	rlwimi       r28,r11,8,0,23
	stw          r28,0Ch(r31)
	addi         r31,r31,20		; 14h
	cmpw         cr6,r31,r9
	blt          cr6,$LL6@initialize
	bl           GetTickCount
	bl           srand
	lis          r11,?random_data@@3PAUpoint_vertex@@A
	li           r30,255		; 0FFh
	addi         r29,r11,?random_data@@3PAUpoint_vertex@@A
	addi         r31,r29,4
$LL3@initialize:					; Start of loop
; Line 73
	bl           rand
	li           r11,640		; 280h
	divw         r11,r3,r11
	mulli        r11,r11,640		; 280h
	subf         r11,r11,r3
	extsw        r11,r11
	std          r11,58h(r1)
	lfd          fr0,58h(r1)
	fcfid        fr0,fr0
	frsp         fr0,fr0
	stfs         fr0,-4(r31)
; Line 74
	bl           rand
	li           r11,480		; 1E0h
; Line 75
	stfs         fr30,4(r31)
; Line 76
	divw         r11,r3,r11
	stfs         fr30,8(r31)
	mulli        r11,r11,480		; 1E0h
	subf         r11,r11,r3
	extsw        r11,r11
	std          r11,50h(r1)
	lfd          fr0,50h(r1)
	fcfid        fr0,fr0
	frsp         fr0,fr0
	stfs         fr0,0(r31)
; Line 77
	bl           rand
	divw         r11,r3,r30
	mulli        r11,r11,255		; 0FFh
	subf         r11,r11,r3
	slwi         r11,r11,8
	oris         r28,r11,255		; 0FFh
	bl           rand
	divw         r11,r3,r30
	mulli        r11,r11,255		; 0FFh
	subf         r11,r11,r3
	clrlwi       r11,r11,24
	or           r11,r11,r28
	slwi         r28,r11,8
	bl           rand
	divw         r10,r3,r30
	addi         r11,r29,12804		; 3204h
	mulli        r10,r10,255		; 0FFh
	subf         r10,r10,r3
	clrlwi       r10,r10,24
	or           r10,r10,r28
	stw          r10,0Ch(r31)
	addi         r31,r31,20		; 14h
	cmpw         cr6,r31,r11
	blt          cr6,$LL3@initialize
; Line 80
	addi         r1,r1,224		; 0E0h
	addi         r12,r1,-40		; 0FFD8h
	bl           __restfpr_22
	b            __restgprlr_28
$M74398:
; End code for function: ?initialize_data@@YAXXZ
?initialize_data@@YAXXZ ENDP
							; initialize_data
PUBLIC	?render@@YAJXZ					; render
;	COMDAT .pdata
; File c:\program files (x86)\microsoft xbox 360 sdk\include\xbox\d3d9.h
.pdata	SEGMENT
$T74437	DD	?render@@YAJXZ
	DD	040002804H
; Function compile flags: /Ogsu

	.code

?render@@YAJXZ PROC NEAR					; render, COMDAT

; Begin code for function: ?render@@YAJXZ
; File c:\users\t3fur\desktop\trainer engine t3\trainer engine t3\trainer\hudd3d.h
; Line 116
	mflr         r12
	stw          r12,-8(r1)
	std          r31,-10h(r1)
	stwu         r1,-60h(r1)
.endprolog
$M74435:
; Line 126
	lis          r11,__real@3f800000
	lis          r31,?g_d3d_device@@3PAUD3DDevice@@A
	li           r10,0
	li           r9,0
	li           r7,0
	li           r6,15		; 0Fh
	lfs          fr1,__real@3f800000(r11)
	li           r5,0
	lwz          r3,?g_d3d_device@@3PAUD3DDevice@@A(r31)
	li           r4,0
	bl           D3DDevice_Clear
; Line 138
	li           r4,68		; 44h
	lwz          r3,?g_d3d_device@@3PAUD3DDevice@@A(r31)
	bl           D3DDevice_SetFVF
; Line 140
	lis          r11,?random_mode@@3_NA
	lbz          r11,?random_mode@@3_NA(r11)
	cmplwi       r11,0
	beq          $LN2@render
; Line 141
	lis          r11,?random_data@@3PAUpoint_vertex@@A
	addi         r6,r11,?random_data@@3PAUpoint_vertex@@A
; Line 142
	b            $LN1@render
$LN2@render:
; Line 143
	lis          r11,?sine_data@@3PAUpoint_vertex@@A
	addi         r6,r11,?sine_data@@3PAUpoint_vertex@@A
$LN1@render:
; Line 149
	li           r7,20		; 14h
	lwz          r3,?g_d3d_device@@3PAUD3DDevice@@A(r31)
	li           r5,640		; 280h
	li           r4,1
	bl           D3DDevice_DrawVerticesUP
; Line 158
	lwz          r3,?g_d3d_device@@3PAUD3DDevice@@A(r31)
	bl           D3DDevice_Present
; Line 160
	li           r3,0
; Line 161
	addi         r1,r1,96		; 60h
	lwz          r12,-8(r1)
	mtlr         r12
	ld           r31,-10h(r1)
	blr
$M74436:
; End code for function: ?render@@YAJXZ
?render@@YAJXZ ENDP
							; render
PUBLIC	??_C@_0BP@JFCIBMMI@Returning?5to?5normal?5xam?5code?$AN?6?$AA@ ; `string'
PUBLIC	?XuiRenderPresentHooked@@YAXXZ			; XuiRenderPresentHooked
EXTRN	DbgPrint:PROC
;	COMDAT ??_C@_0BP@JFCIBMMI@Returning?5to?5normal?5xam?5code?$AN?6?$AA@
.rdata	SEGMENT
??_C@_0BP@JFCIBMMI@Returning?5to?5normal?5xam?5code?$AN?6?$AA@ DB 'Return'
	DB	'ing to normal xam code', 0dH, 0aH, 00H	; `string'
; Function compile flags: /Odsu

	.code

?XuiRenderPresentHooked@@YAXXZ PROC NEAR			; XuiRenderPresentHooked, COMDAT

; Begin code for function: ?XuiRenderPresentHooked@@YAXXZ
; Line 175
	lwz          r3,0B0Ch(r29)
; Line 176
	lis          r11,?g_d3d_device@@3PAUD3DDevice@@A
	mr           r10,r3
	stw          r10,?g_d3d_device@@3PAUD3DDevice@@A(r11)
; Line 179
	lis          r11,?firstrun@@3_NA
	lbz          r11,?firstrun@@3_NA(r11)
	cmpwi        cr6,r11,1
	bne          cr6,$LN1@XuiRenderP
; Line 181
	bl           ?initialize_data@@YAXXZ
; Line 182
	lis          r11,?firstrun@@3_NA
	li           r10,0
	stb          r10,?firstrun@@3_NA(r11)
$LN1@XuiRenderP:
; Line 185
	bl           ?render@@YAJXZ
; Line 187
	lis          r11,??_C@_0BP@JFCIBMMI@Returning?5to?5normal?5xam?5code?$AN?6?$AA@
	addi         r3,r11,??_C@_0BP@JFCIBMMI@Returning?5to?5normal?5xam?5code?$AN?6?$AA@
	bl           DbgPrint
; Line 190
	li           r4,0
; Line 191
	lwz          r3,7Ch(r28)
; Line 192
	lis          r11,-32367		; 8191h
; Line 193
	ori          r11,r11,34600		; 8728h
; Line 194
	mtctr        r11
; Line 195
	bctrl
; Line 196
	li           r4,0
; Line 197
	lwz          r3,0B0Ch(r29)
; Line 200
	lis          r11,-32363		; 8195h
; Line 201
	ori          r11,r11,17908		; 45F4h
; Line 202
	mtctr        r11
; Line 203
	bctr
; End code for function: ?XuiRenderPresentHooked@@YAXXZ
?XuiRenderPresentHooked@@YAXXZ ENDP
							; XuiRenderPresentHooked
PUBLIC	??_C@_0BP@PEDEEJMJ@?9?9?9?9?9?9?5Hook?5Activated?5?9?9?9?9?9?9?$AN?6?$AA@ ; `string'
PUBLIC	?PatchCreateDC@@YAXXZ				; PatchCreateDC
EXTRN	DmSetMemory:PROC
;	COMDAT .pdata
.pdata	SEGMENT
$T74445	DD	?PatchCreateDC@@YAXXZ
	DD	040002703H
;	COMDAT ??_C@_0BP@PEDEEJMJ@?9?9?9?9?9?9?5Hook?5Activated?5?9?9?9?9?9?9?$AN?6?$AA@
.rdata	SEGMENT
??_C@_0BP@PEDEEJMJ@?9?9?9?9?9?9?5Hook?5Activated?5?9?9?9?9?9?9?$AN?6?$AA@ DB '-'
	DB	'----- Hook Activated ------', 0dH, 0aH, 00H	; `string'
; Function compile flags: /Ogsu

	.code
Stuff$ = 80						; size = 16

?PatchCreateDC@@YAXXZ PROC NEAR				; PatchCreateDC, COMDAT

; Begin code for function: ?PatchCreateDC@@YAXXZ
; Line 209
	mflr         r12
	stw          r12,-8(r1)
	stwu         r1,-70h(r1)
.endprolog
$M74443:
; Line 210
	lis          r11,??_C@_0BP@PEDEEJMJ@?9?9?9?9?9?9?5Hook?5Activated?5?9?9?9?9?9?9?$AN?6?$AA@
	addi         r3,r11,??_C@_0BP@PEDEEJMJ@?9?9?9?9?9?9?5Hook?5Activated?5?9?9?9?9?9?9?$AN?6?$AA@
	bl           DbgPrint
; Line 216
	lis          r11,?XuiRenderPresentHooked@@YAXXZ
	li           r5,0
	addi         r4,r11,?XuiRenderPresentHooked@@YAXXZ
	addi         r3,r1,Stuff$
	bl           ?patchInJumpr11@@YAXPAKKH@Z
; Line 217
	lis          r3,-32363		; 8195h
	li           r6,0
	addi         r5,r1,Stuff$
	li           r4,4
	ori          r3,r3,17892		; 45E4h
	bl           DmSetMemory
; Line 218
	lis          r3,-32363		; 8195h
	li           r6,0
	addi         r5,r1,Stuff$+4
	li           r4,4
	ori          r3,r3,17896		; 45E8h
	bl           DmSetMemory
; Line 219
	lis          r3,-32363		; 8195h
	li           r6,0
	addi         r5,r1,Stuff$+8
	li           r4,4
	ori          r3,r3,17900		; 45ECh
	bl           DmSetMemory
; Line 220
	lis          r3,-32363		; 8195h
	li           r6,0
	addi         r5,r1,Stuff$+0Ch
	li           r4,4
	ori          r3,r3,17904		; 45F0h
	bl           DmSetMemory
; Line 221
	addi         r1,r1,112		; 70h
	lwz          r12,-8(r1)
	mtlr         r12
	blr
$M74444:
; End code for function: ?PatchCreateDC@@YAXXZ
?PatchCreateDC@@YAXXZ ENDP
							; PatchCreateDC
PUBLIC	?TitleTerminate@@YAXXZ				; TitleTerminate
; Function compile flags: /Ogsu

	.code

?TitleTerminate@@YAXXZ PROC NEAR				; TitleTerminate, COMDAT

; Begin code for function: ?TitleTerminate@@YAXXZ
; File c:\users\t3fur\desktop\trainer engine t3\trainer engine t3\trainer\main.cpp
; Line 46
	lis          r11,?XamGetCurrentTitleId@@3P6AIXZA
	lwz          r10,?XamGetCurrentTitleId@@3P6AIXZA(r11)
	cmplwi       cr6,r10,0
	beqlr        cr6
; Line 49
	rlwinm       r11,r10,0,0,31
	mtctr        r11
	bctr
$LN1@TitleTermi:
	blr
; End code for function: ?TitleTerminate@@YAXXZ
?TitleTerminate@@YAXXZ ENDP
							; TitleTerminate
;	COMDAT .pdata
.pdata	SEGMENT
$T74454	DD	?StaticHandler@@YAXXZ
	DD	040001603H
; Function compile flags: /Ogsu

	.code

?StaticHandler@@YAXXZ PROC NEAR				; StaticHandler, COMDAT

; Begin code for function: ?StaticHandler@@YAXXZ
; Line 56
	mflr         r12
	bl           __savegprlr_28
	stwu         r1,-80h(r1)
.endprolog
$M74452:
	lis          r29,staticcode
	lis          r28,?Static_Menu@@3P6AXXZA
	lis          r30,?XamGetCurrentTitleId@@3P6AIXZA
	lis          r31,?BootInfo@@3KA
$LL3@StaticHand:					; Start of loop
; Line 59
	lbz          r11,staticcode(r29)
	cmplwi       cr6,r11,1
	bne          cr6,$LN1@StaticHand
	lwz          r11,?XamGetCurrentTitleId@@3P6AIXZA(r30)
	mtctr        r11
	bctrl
	lwz          r11,?BootInfo@@3KA(r31)
	cmplw        cr6,r11,r3
	bne          cr6,$LN1@StaticHand
; Line 60
	lwz          r11,?Static_Menu@@3P6AXXZA(r28)
	mtctr        r11
	bctrl
$LN1@StaticHand:
; Line 62
	li           r3,100		; 64h
	bl           Sleep
; Line 63
	b            $LL3@StaticHand
$M74453:
; End code for function: ?StaticHandler@@YAXXZ
?StaticHandler@@YAXXZ ENDP
							; StaticHandler
PUBLIC	?XamUserGetSigninStateHook@@YA?AW4_XUSER_SIGNIN_STATE@@K@Z ; XamUserGetSigninStateHook
; Function compile flags: /Ogsu

	.code

?XamUserGetSigninStateHook@@YA?AW4_XUSER_SIGNIN_STATE@@K@Z PROC NEAR ; XamUserGetSigninStateHook, COMDAT

; Begin code for function: ?XamUserGetSigninStateHook@@YA?AW4_XUSER_SIGNIN_STATE@@K@Z
; Line 234
	li           r3,2
; Line 235
	blr
; End code for function: ?XamUserGetSigninStateHook@@YA?AW4_XUSER_SIGNIN_STATE@@K@Z
?XamUserGetSigninStateHook@@YA?AW4_XUSER_SIGNIN_STATE@@K@Z ENDP
							; XamUserGetSigninStateHook
PUBLIC	?hNotify@@YAXPA_W@Z				; hNotify
EXTRN	CreateThread:PROC
; Function compile flags: /Ogsu

	.code

?hNotify@@YAXPA_W@Z PROC NEAR				; hNotify, COMDAT

; Begin code for function: ?hNotify@@YAXPA_W@Z
; File c:\users\t3fur\desktop\trainer engine t3\trainer engine t3\trainer\common.h
; Line 195
	lis          r11,?commands@@YAKPA_W@Z
	mr           r6,r3
	li           r8,0
	li           r7,0
	addi         r5,r11,?commands@@YAKPA_W@Z
	li           r4,0
	li           r3,0
	b            CreateThread
; End code for function: ?hNotify@@YAXPA_W@Z
?hNotify@@YAXPA_W@Z ENDP
							; hNotify
PUBLIC	?pop@@YAXPA_W@Z					; pop
; Function compile flags: /Ogsu

	.code

?pop@@YAXPA_W@Z	PROC NEAR				; pop, COMDAT

; Begin code for function: ?pop@@YAXPA_W@Z
; Line 200
	lis          r11,?commands@@YAKPA_W@Z
	mr           r6,r3
	li           r8,0
	li           r7,0
	addi         r5,r11,?commands@@YAKPA_W@Z
	li           r4,0
	li           r3,0
	b            CreateThread
; End code for function: ?pop@@YAXPA_W@Z
?pop@@YAXPA_W@Z ENDP
							; pop
PUBLIC	?NameNotify@@YAXPB_W@Z				; NameNotify
; Function compile flags: /Ogsu

	.code

?NameNotify@@YAXPB_W@Z PROC NEAR				; NameNotify, COMDAT

; Begin code for function: ?NameNotify@@YAXPB_W@Z
; Line 205
	lis          r11,?commands@@YAKPA_W@Z
	mr           r6,r3
	li           r8,0
	li           r7,0
	addi         r5,r11,?commands@@YAKPA_W@Z
	li           r4,0
	li           r3,0
	b            CreateThread
; End code for function: ?NameNotify@@YAXPB_W@Z
?NameNotify@@YAXPB_W@Z ENDP
							; NameNotify
PUBLIC	??_C@_1CK@BCNAHGHJ@A?$AAl?$AAl?$AA?5?$AAC?$AAh?$AAe?$AAa?$AAt?$AAs?$AA?5?$AAA?$AAc?$AAt?$AAi?$AAv?$AAa?$AAt?$AAe?$AAd?$AA?$AA?$AA@ ; `string'
PUBLIC	??_C@_1CO@MIOLOFPF@A?$AAl?$AAl?$AA?5?$AAC?$AAh?$AAe?$AAa?$AAt?$AAs?$AA?5?$AAD?$AAe?$AAa?$AAc?$AAt?$AAi?$AAv?$AAa?$AAt?$AAe?$AAd?$AA?$AA?$AA@ ; `string'
PUBLIC	??_C@_1CI@DJCMKBGD@S?$AAt?$AAo?$AAp?$AA?5?$AAC?$AAr?$AAi?$AAt?$AAi?$AAc?$AAa?$AAl?$AA?5?$AAT?$AAi?$AAm?$AAe?$AAr?$AA?$AA?$AA@ ; `string'
PUBLIC	??_C@_1CG@KALJDFEB@I?$AAn?$AAf?$AA?5?$AAA?$AAm?$AAm?$AAo?$AA?5?$AAA?$AAc?$AAt?$AAi?$AAv?$AAa?$AAt?$AAe?$AAd?$AA?$AA?$AA@ ; `string'
PUBLIC	??_C@_1CK@BOPIAEGM@I?$AAn?$AAf?$AA?5?$AAA?$AAm?$AAm?$AAo?$AA?5?$AAD?$AAe?$AAa?$AAc?$AAt?$AAi?$AAv?$AAa?$AAt?$AAe?$AAd?$AA?$AA?$AA@ ; `string'
PUBLIC	??_C@_1EM@GEABNFNE@I?$AAn?$AAf?$AA?5?$AAF?$AAl?$AAa?$AAs?$AAh?$AAL?$AAi?$AAg?$AAh?$AAt?$AA?1?$AAH?$AAe?$AAa?$AAl?$AAt?$AAh?$AA?5?$AAS?$AAp?$AAr?$AAa?$AAy?$AA?5?$AAA?$AAc?$AAt?$AAi?$AA@ ; `string'
PUBLIC	??_C@_1FA@INJBOHED@I?$AAn?$AAf?$AA?5?$AAF?$AAl?$AAa?$AAs?$AAh?$AAL?$AAi?$AAg?$AAh?$AAt?$AA?1?$AAH?$AAe?$AAa?$AAl?$AAt?$AAh?$AA?5?$AAS?$AAp?$AAr?$AAa?$AAy?$AA?5?$AAD?$AAe?$AAa?$AAc?$AA@ ; `string'
PUBLIC	??_C@_1CI@MDNCHAML@I?$AAn?$AAf?$AA?5?$AAI?$AAt?$AAe?$AAm?$AAs?$AA?5?$AAA?$AAc?$AAt?$AAi?$AAv?$AAa?$AAt?$AAe?$AAd?$AA?$AA?$AA@ ; `string'
PUBLIC	??_C@_1CM@LIPPJPJG@I?$AAn?$AAf?$AA?5?$AAI?$AAt?$AAe?$AAm?$AAs?$AA?5?$AAD?$AAe?$AAa?$AAc?$AAt?$AAi?$AAv?$AAa?$AAt?$AAe?$AAd?$AA?$AA?$AA@ ; `string'
PUBLIC	??_C@_1DI@BGMHNCBB@V?$AAi?$AAe?$AAw?$AAi?$AAn?$AAg?$AA?5?$AAA?$AAl?$AAl?$AA?5?$AAA?$AAv?$AAa?$AAi?$AAl?$AAa?$AAb?$AAl?$AAe?$AA?5?$AAC?$AAo?$AAd?$AAe?$AAs?$AA?$AA?$AA@ ; `string'
PUBLIC	??_C@_1BKO@FGHEONFO@A?$AAl?$AAl?$AA?5?$AAC?$AAh?$AAe?$AAa?$AAt?$AAs?$AA?5?$AAD?$AAp?$AAa?$AAd?$AA?5?$AAU?$AAp?$AA?$CI?$AAx?$AA4?$AA?$CJ?$AA?$AN?$AA?6?$AAI?$AAn?$AAf?$AA?5?$AAI?$AAt?$AAe?$AAm?$AA@ ; `string'
PUBLIC	?ButPress@@YAXU_MESSAGEBOX_RESULT@@@Z		; ButPress
EXTRN	__restgprlr_21:PROC
EXTRN	__savegprlr_21:PROC
;	COMDAT .pdata
.pdata	SEGMENT
$T74508	DD	?ButPress@@YAXU_MESSAGEBOX_RESULT@@@Z
	DD	040014903H
;	COMDAT ??_C@_1CK@BCNAHGHJ@A?$AAl?$AAl?$AA?5?$AAC?$AAh?$AAe?$AAa?$AAt?$AAs?$AA?5?$AAA?$AAc?$AAt?$AAi?$AAv?$AAa?$AAt?$AAe?$AAd?$AA?$AA?$AA@
.rdata	SEGMENT
??_C@_1CK@BCNAHGHJ@A?$AAl?$AAl?$AA?5?$AAC?$AAh?$AAe?$AAa?$AAt?$AAs?$AA?5?$AAA?$AAc?$AAt?$AAi?$AAv?$AAa?$AAt?$AAe?$AAd?$AA?$AA?$AA@ DB 00H
	DB	'A', 00H, 'l', 00H, 'l', 00H, ' ', 00H, 'C', 00H, 'h', 00H, 'e'
	DB	00H, 'a', 00H, 't', 00H, 's', 00H, ' ', 00H, 'A', 00H, 'c', 00H
	DB	't', 00H, 'i', 00H, 'v', 00H, 'a', 00H, 't', 00H, 'e', 00H, 'd'
	DB	00H, 00H					; `string'
;	COMDAT ??_C@_1CO@MIOLOFPF@A?$AAl?$AAl?$AA?5?$AAC?$AAh?$AAe?$AAa?$AAt?$AAs?$AA?5?$AAD?$AAe?$AAa?$AAc?$AAt?$AAi?$AAv?$AAa?$AAt?$AAe?$AAd?$AA?$AA?$AA@
.rdata	SEGMENT
??_C@_1CO@MIOLOFPF@A?$AAl?$AAl?$AA?5?$AAC?$AAh?$AAe?$AAa?$AAt?$AAs?$AA?5?$AAD?$AAe?$AAa?$AAc?$AAt?$AAi?$AAv?$AAa?$AAt?$AAe?$AAd?$AA?$AA?$AA@ DB 00H
	DB	'A', 00H, 'l', 00H, 'l', 00H, ' ', 00H, 'C', 00H, 'h', 00H, 'e'
	DB	00H, 'a', 00H, 't', 00H, 's', 00H, ' ', 00H, 'D', 00H, 'e', 00H
	DB	'a', 00H, 'c', 00H, 't', 00H, 'i', 00H, 'v', 00H, 'a', 00H, 't'
	DB	00H, 'e', 00H, 'd', 00H, 00H			; `string'
;	COMDAT ??_C@_1CI@DJCMKBGD@S?$AAt?$AAo?$AAp?$AA?5?$AAC?$AAr?$AAi?$AAt?$AAi?$AAc?$AAa?$AAl?$AA?5?$AAT?$AAi?$AAm?$AAe?$AAr?$AA?$AA?$AA@
.rdata	SEGMENT
??_C@_1CI@DJCMKBGD@S?$AAt?$AAo?$AAp?$AA?5?$AAC?$AAr?$AAi?$AAt?$AAi?$AAc?$AAa?$AAl?$AA?5?$AAT?$AAi?$AAm?$AAe?$AAr?$AA?$AA?$AA@ DB 00H
	DB	'S', 00H, 't', 00H, 'o', 00H, 'p', 00H, ' ', 00H, 'C', 00H, 'r'
	DB	00H, 'i', 00H, 't', 00H, 'i', 00H, 'c', 00H, 'a', 00H, 'l', 00H
	DB	' ', 00H, 'T', 00H, 'i', 00H, 'm', 00H, 'e', 00H, 'r', 00H, 00H ; `string'
;	COMDAT ??_C@_1CG@KALJDFEB@I?$AAn?$AAf?$AA?5?$AAA?$AAm?$AAm?$AAo?$AA?5?$AAA?$AAc?$AAt?$AAi?$AAv?$AAa?$AAt?$AAe?$AAd?$AA?$AA?$AA@
.rdata	SEGMENT
??_C@_1CG@KALJDFEB@I?$AAn?$AAf?$AA?5?$AAA?$AAm?$AAm?$AAo?$AA?5?$AAA?$AAc?$AAt?$AAi?$AAv?$AAa?$AAt?$AAe?$AAd?$AA?$AA?$AA@ DB 00H
	DB	'I', 00H, 'n', 00H, 'f', 00H, ' ', 00H, 'A', 00H, 'm', 00H, 'm'
	DB	00H, 'o', 00H, ' ', 00H, 'A', 00H, 'c', 00H, 't', 00H, 'i', 00H
	DB	'v', 00H, 'a', 00H, 't', 00H, 'e', 00H, 'd', 00H, 00H ; `string'
;	COMDAT ??_C@_1CK@BOPIAEGM@I?$AAn?$AAf?$AA?5?$AAA?$AAm?$AAm?$AAo?$AA?5?$AAD?$AAe?$AAa?$AAc?$AAt?$AAi?$AAv?$AAa?$AAt?$AAe?$AAd?$AA?$AA?$AA@
.rdata	SEGMENT
??_C@_1CK@BOPIAEGM@I?$AAn?$AAf?$AA?5?$AAA?$AAm?$AAm?$AAo?$AA?5?$AAD?$AAe?$AAa?$AAc?$AAt?$AAi?$AAv?$AAa?$AAt?$AAe?$AAd?$AA?$AA?$AA@ DB 00H
	DB	'I', 00H, 'n', 00H, 'f', 00H, ' ', 00H, 'A', 00H, 'm', 00H, 'm'
	DB	00H, 'o', 00H, ' ', 00H, 'D', 00H, 'e', 00H, 'a', 00H, 'c', 00H
	DB	't', 00H, 'i', 00H, 'v', 00H, 'a', 00H, 't', 00H, 'e', 00H, 'd'
	DB	00H, 00H					; `string'
;	COMDAT ??_C@_1EM@GEABNFNE@I?$AAn?$AAf?$AA?5?$AAF?$AAl?$AAa?$AAs?$AAh?$AAL?$AAi?$AAg?$AAh?$AAt?$AA?1?$AAH?$AAe?$AAa?$AAl?$AAt?$AAh?$AA?5?$AAS?$AAp?$AAr?$AAa?$AAy?$AA?5?$AAA?$AAc?$AAt?$AAi?$AA@
.rdata	SEGMENT
??_C@_1EM@GEABNFNE@I?$AAn?$AAf?$AA?5?$AAF?$AAl?$AAa?$AAs?$AAh?$AAL?$AAi?$AAg?$AAh?$AAt?$AA?1?$AAH?$AAe?$AAa?$AAl?$AAt?$AAh?$AA?5?$AAS?$AAp?$AAr?$AAa?$AAy?$AA?5?$AAA?$AAc?$AAt?$AAi?$AA@ DB 00H
	DB	'I', 00H, 'n', 00H, 'f', 00H, ' ', 00H, 'F', 00H, 'l', 00H, 'a'
	DB	00H, 's', 00H, 'h', 00H, 'L', 00H, 'i', 00H, 'g', 00H, 'h', 00H
	DB	't', 00H, '/', 00H, 'H', 00H, 'e', 00H, 'a', 00H, 'l', 00H, 't'
	DB	00H, 'h', 00H, ' ', 00H, 'S', 00H, 'p', 00H, 'r', 00H, 'a', 00H
	DB	'y', 00H, ' ', 00H, 'A', 00H, 'c', 00H, 't', 00H, 'i', 00H, 'v'
	DB	00H, 'a', 00H, 't', 00H, 'e', 00H, 'd', 00H, 00H ; `string'
;	COMDAT ??_C@_1FA@INJBOHED@I?$AAn?$AAf?$AA?5?$AAF?$AAl?$AAa?$AAs?$AAh?$AAL?$AAi?$AAg?$AAh?$AAt?$AA?1?$AAH?$AAe?$AAa?$AAl?$AAt?$AAh?$AA?5?$AAS?$AAp?$AAr?$AAa?$AAy?$AA?5?$AAD?$AAe?$AAa?$AAc?$AA@
.rdata	SEGMENT
??_C@_1FA@INJBOHED@I?$AAn?$AAf?$AA?5?$AAF?$AAl?$AAa?$AAs?$AAh?$AAL?$AAi?$AAg?$AAh?$AAt?$AA?1?$AAH?$AAe?$AAa?$AAl?$AAt?$AAh?$AA?5?$AAS?$AAp?$AAr?$AAa?$AAy?$AA?5?$AAD?$AAe?$AAa?$AAc?$AA@ DB 00H
	DB	'I', 00H, 'n', 00H, 'f', 00H, ' ', 00H, 'F', 00H, 'l', 00H, 'a'
	DB	00H, 's', 00H, 'h', 00H, 'L', 00H, 'i', 00H, 'g', 00H, 'h', 00H
	DB	't', 00H, '/', 00H, 'H', 00H, 'e', 00H, 'a', 00H, 'l', 00H, 't'
	DB	00H, 'h', 00H, ' ', 00H, 'S', 00H, 'p', 00H, 'r', 00H, 'a', 00H
	DB	'y', 00H, ' ', 00H, 'D', 00H, 'e', 00H, 'a', 00H, 'c', 00H, 't'
	DB	00H, 'i', 00H, 'v', 00H, 'a', 00H, 't', 00H, 'e', 00H, 'd', 00H
	DB	00H						; `string'
;	COMDAT ??_C@_1CI@MDNCHAML@I?$AAn?$AAf?$AA?5?$AAI?$AAt?$AAe?$AAm?$AAs?$AA?5?$AAA?$AAc?$AAt?$AAi?$AAv?$AAa?$AAt?$AAe?$AAd?$AA?$AA?$AA@
.rdata	SEGMENT
??_C@_1CI@MDNCHAML@I?$AAn?$AAf?$AA?5?$AAI?$AAt?$AAe?$AAm?$AAs?$AA?5?$AAA?$AAc?$AAt?$AAi?$AAv?$AAa?$AAt?$AAe?$AAd?$AA?$AA?$AA@ DB 00H
	DB	'I', 00H, 'n', 00H, 'f', 00H, ' ', 00H, 'I', 00H, 't', 00H, 'e'
	DB	00H, 'm', 00H, 's', 00H, ' ', 00H, 'A', 00H, 'c', 00H, 't', 00H
	DB	'i', 00H, 'v', 00H, 'a', 00H, 't', 00H, 'e', 00H, 'd', 00H, 00H ; `string'
;	COMDAT ??_C@_1CM@LIPPJPJG@I?$AAn?$AAf?$AA?5?$AAI?$AAt?$AAe?$AAm?$AAs?$AA?5?$AAD?$AAe?$AAa?$AAc?$AAt?$AAi?$AAv?$AAa?$AAt?$AAe?$AAd?$AA?$AA?$AA@
.rdata	SEGMENT
??_C@_1CM@LIPPJPJG@I?$AAn?$AAf?$AA?5?$AAI?$AAt?$AAe?$AAm?$AAs?$AA?5?$AAD?$AAe?$AAa?$AAc?$AAt?$AAi?$AAv?$AAa?$AAt?$AAe?$AAd?$AA?$AA?$AA@ DB 00H
	DB	'I', 00H, 'n', 00H, 'f', 00H, ' ', 00H, 'I', 00H, 't', 00H, 'e'
	DB	00H, 'm', 00H, 's', 00H, ' ', 00H, 'D', 00H, 'e', 00H, 'a', 00H
	DB	'c', 00H, 't', 00H, 'i', 00H, 'v', 00H, 'a', 00H, 't', 00H, 'e'
	DB	00H, 'd', 00H, 00H				; `string'
;	COMDAT ??_C@_1DI@BGMHNCBB@V?$AAi?$AAe?$AAw?$AAi?$AAn?$AAg?$AA?5?$AAA?$AAl?$AAl?$AA?5?$AAA?$AAv?$AAa?$AAi?$AAl?$AAa?$AAb?$AAl?$AAe?$AA?5?$AAC?$AAo?$AAd?$AAe?$AAs?$AA?$AA?$AA@
.rdata	SEGMENT
??_C@_1DI@BGMHNCBB@V?$AAi?$AAe?$AAw?$AAi?$AAn?$AAg?$AA?5?$AAA?$AAl?$AAl?$AA?5?$AAA?$AAv?$AAa?$AAi?$AAl?$AAa?$AAb?$AAl?$AAe?$AA?5?$AAC?$AAo?$AAd?$AAe?$AAs?$AA?$AA?$AA@ DB 00H
	DB	'V', 00H, 'i', 00H, 'e', 00H, 'w', 00H, 'i', 00H, 'n', 00H, 'g'
	DB	00H, ' ', 00H, 'A', 00H, 'l', 00H, 'l', 00H, ' ', 00H, 'A', 00H
	DB	'v', 00H, 'a', 00H, 'i', 00H, 'l', 00H, 'a', 00H, 'b', 00H, 'l'
	DB	00H, 'e', 00H, ' ', 00H, 'C', 00H, 'o', 00H, 'd', 00H, 'e', 00H
	DB	's', 00H, 00H				; `string'
;	COMDAT ??_C@_1BKO@FGHEONFO@A?$AAl?$AAl?$AA?5?$AAC?$AAh?$AAe?$AAa?$AAt?$AAs?$AA?5?$AAD?$AAp?$AAa?$AAd?$AA?5?$AAU?$AAp?$AA?$CI?$AAx?$AA4?$AA?$CJ?$AA?$AN?$AA?6?$AAI?$AAn?$AAf?$AA?5?$AAI?$AAt?$AAe?$AAm?$AA@
.rdata	SEGMENT
??_C@_1BKO@FGHEONFO@A?$AAl?$AAl?$AA?5?$AAC?$AAh?$AAe?$AAa?$AAt?$AAs?$AA?5?$AAD?$AAp?$AAa?$AAd?$AA?5?$AAU?$AAp?$AA?$CI?$AAx?$AA4?$AA?$CJ?$AA?$AN?$AA?6?$AAI?$AAn?$AAf?$AA?5?$AAI?$AAt?$AAe?$AAm?$AA@ DB 00H
	DB	'A', 00H, 'l', 00H, 'l', 00H, ' ', 00H, 'C', 00H, 'h', 00H, 'e'
	DB	00H, 'a', 00H, 't', 00H, 's', 00H, ' ', 00H, 'D', 00H, 'p', 00H
	DB	'a', 00H, 'd', 00H, ' ', 00H, 'U', 00H, 'p', 00H, '(', 00H, 'x'
	DB	00H, '4', 00H, ')', 00H, 0dH, 00H, 0aH, 00H, 'I', 00H, 'n', 00H
	DB	'f', 00H, ' ', 00H, 'I', 00H, 't', 00H, 'e', 00H, 'm', 00H, 's'
	DB	00H, ' ', 00H, 'R', 00H, 'T', 00H, '(', 00H, 'x', 00H, '4', 00H
	DB	')', 00H, 0dH, 00H, 0aH, 00H, 'I', 00H, 'n', 00H, 'f', 00H, ' '
	DB	00H, 'A', 00H, 'm', 00H, 'm', 00H, 'o', 00H, ' ', 00H, 'L', 00H
	DB	'T', 00H, '(', 00H, 'x', 00H, '4', 00H, ')', 00H, 0dH, 00H, 0aH
	DB	00H, 'F', 00H, 'l', 00H, 'a', 00H, 's', 00H, 'h', 00H, 'L', 00H
	DB	'i', 00H, 'g', 00H, 'h', 00H, 't', 00H, '/', 00H, 'H', 00H, 'e'
	DB	00H, 'a', 00H, 'l', 00H, 't', 00H, 'h', 00H, ' ', 00H, 'S', 00H
	DB	'p', 00H, 'r', 00H, 'a', 00H, 'y', 00H, ' ', 00H, 'R', 00H, 'B'
	DB	00H, '(', 00H, 'x', 00H, '4', 00H, ')', 00H, 0dH, 00H, 0aH, 00H
	DB	'S', 00H, 't', 00H, 'o', 00H, 'p', 00H, ' ', 00H, 'C', 00H, 'r'
	DB	00H, 'i', 00H, 't', 00H, 'i', 00H, 'c', 00H, 'a', 00H, 'l', 00H
	DB	' ', 00H, 'T', 00H, 'i', 00H, 'm', 00H, 'e', 00H, 'r', 00H, ' '
	DB	00H, 'L', 00H, 'B', 00H, '(', 00H, 'x', 00H, '4', 00H, ')', 00H
	DB	0dH, 00H, 0aH, 00H, '~', 00H, '~', 00H, '~', 00H, '~', 00H, '~'
	DB	00H, '~', 00H, '~', 00H, '~', 00H, '~', 00H, '~', 00H, '~', 00H
	DB	'~', 00H, '~', 00H, '~', 00H, '~', 00H, '~', 00H, '~', 00H, '~'
	DB	00H, '~', 00H, '~', 00H, '~', 00H, '~', 00H, '~', 00H, '~', 00H
	DB	'~', 00H, 0dH, 00H, 0aH, 00H, 'C', 00H, 'r', 00H, 'e', 00H, 'a'
	DB	00H, 't', 00H, 'e', 00H, 'd', 00H, ' ', 00H, 'b', 00H, 'y', 00H
	DB	' ', 00H, 't', 00H, '3', 00H, 'f', 00H, 'u', 00H, 'r', 00H, 'y'
	DB	00H, ' ', 00H, 0dH, 00H, 0aH, 00H, 'T', 00H, '3', 00H, 'f', 00H
	DB	'u', 00H, 'r', 00H, 'y', 00H, 'G', 00H, 'a', 00H, 'm', 00H, 'i'
	DB	00H, 'n', 00H, 'g', 00H, '.', 00H, 'c', 00H, 'o', 00H, '.', 00H
	DB	'u', 00H, 'k', 00H, 0dH, 00H, 0aH, 00H, 'T', 00H, 'h', 00H, 'e'
	DB	00H, ' ', 00H, 'F', 00H, 'u', 00H, 't', 00H, 'u', 00H, 'r', 00H
	DB	'e', 00H, ' ', 00H, 'o', 00H, 'f', 00H, ' ', 00H, 'G', 00H, 'a'
	DB	00H, 'm', 00H, 'i', 00H, 'n', 00H, 'g', 00H, ' ', 00H, 'i', 00H
	DB	's', 00H, ' ', 00H, 'H', 00H, 'e', 00H, 'r', 00H, 'e', 00H, 00H ; `string'
; Function compile flags: /Ogsu

	.code

?ButPress@@YAXU_MESSAGEBOX_RESULT@@@Z PROC NEAR		; ButPress, COMDAT

; Begin code for function: ?ButPress@@YAXU_MESSAGEBOX_RESULT@@@Z
; File c:\users\t3fur\desktop\trainer engine t3\trainer engine t3\trainer\alone in the dark.h
; Line 117
	mflr         r12
	bl           __savegprlr_21
	stwu         r1,-0C0h(r1)
.endprolog
$M74506:
; Line 119
	lis          r10,0
	std          r3,g_mb_result$(r1)
	lhz          r11,g_mb_result$(r1)		; 208 (0D0h)
	li           r31,0
	ori          r21,r10,39321		; 9999h
	lis          r22,?Prompt@@3KA
	cmplwi       cr6,r11,22545		; 5811h
	bne          cr6,$LN16@ButPress
	lhz          r11,g_mb_result$+2(r1)		; 210 (0D2h)
	cmplwi       cr6,r11,22545		; 5811h
	bne          cr6,$LN16@ButPress
	lhz          r11,g_mb_result$+4(r1)		; 212 (0D4h)
	cmplwi       cr6,r11,22545		; 5811h
	bne          cr6,$LN16@ButPress
	lhz          r11,g_mb_result$+6(r1)		; 214 (0D6h)
	cmplwi       cr6,r11,22545		; 5811h
	bne          cr6,$LN16@ButPress
; Line 121
	li           r3,500		; 1F4h
	bl           Sleep
; Line 123
	lis          r10,?g_strButtons@@3PAPB_WA
	lis          r9,??_C@_1BKO@FGHEONFO@A?$AAl?$AAl?$AA?5?$AAC?$AAh?$AAe?$AAa?$AAt?$AAs?$AA?5?$AAD?$AAp?$AAa?$AAd?$AA?5?$AAU?$AAp?$AA?$CI?$AAx?$AA4?$AA?$CJ?$AA?$AN?$AA?6?$AAI?$AAn?$AAf?$AA?5?$AAI?$AAt?$AAe?$AAm?$AA@
	lis          r8,??_C@_1DI@BGMHNCBB@V?$AAi?$AAe?$AAw?$AAi?$AAn?$AAg?$AA?5?$AAA?$AAl?$AAl?$AA?5?$AAA?$AAv?$AAa?$AAi?$AAl?$AAa?$AAb?$AAl?$AAe?$AA?5?$AAC?$AAo?$AAd?$AAe?$AAs?$AA?$AA?$AA@
	lis          r11,?g_xol@@3U_XOVERLAPPED@@A
	addi         r7,r10,?g_strButtons@@3PAPB_WA
	addi         r11,r11,?g_xol@@3U_XOVERLAPPED@@A
	addi         r5,r9,??_C@_1BKO@FGHEONFO@A?$AAl?$AAl?$AA?5?$AAC?$AAh?$AAe?$AAa?$AAt?$AAs?$AA?5?$AAD?$AAp?$AAa?$AAd?$AA?5?$AAU?$AAp?$AA?$CI?$AAx?$AA4?$AA?$CJ?$AA?$AN?$AA?6?$AAI?$AAn?$AAf?$AA?5?$AAI?$AAt?$AAe?$AAm?$AA@
	addi         r4,r8,??_C@_1DI@BGMHNCBB@V?$AAi?$AAe?$AAw?$AAi?$AAn?$AAg?$AA?5?$AAA?$AAl?$AAl?$AA?5?$AAA?$AAv?$AAa?$AAi?$AAl?$AAa?$AAb?$AAl?$AAe?$AA?5?$AAC?$AAo?$AAd?$AAe?$AAs?$AA?$AA?$AA@
	stw          r11,54h(r1)
	addi         r10,r1,g_mb_result$
	li           r9,0
	li           r8,0
	li           r6,1
	li           r3,0
	bl           XShowMessageBoxUI
; Line 125
	addi         r10,r1,g_mb_result$
; Line 126
	addi         r9,r1,g_mb_result$+2
; Line 129
	stw          r21,?Prompt@@3KA(r22)
	addi         r8,r1,g_mb_result$+4
	addi         r7,r1,g_mb_result$+6
	mr           r11,r21
	sth          r31,0(r10)
	sth          r31,0(r9)
	sth          r31,0(r8)
	sth          r31,0(r7)
$LN16@ButPress:
; Line 133
	lhz          r11,g_mb_result$(r1)		; 208 (0D0h)
	lis          r23,?Timer1_addr@@3KA
	cmplwi       cr6,r11,22535		; 5807h
	bne          cr6,$LN15@ButPress
	lhz          r11,g_mb_result$+2(r1)		; 210 (0D2h)
	cmplwi       cr6,r11,22535		; 5807h
	bne          cr6,$LN15@ButPress
	lhz          r11,g_mb_result$+4(r1)		; 212 (0D4h)
	cmplwi       cr6,r11,22535		; 5807h
	bne          cr6,$LN15@ButPress
	lhz          r11,g_mb_result$+6(r1)		; 214 (0D6h)
	cmplwi       cr6,r11,22535		; 5807h
	bne          cr6,$LN15@ButPress
; Line 135
	li           r3,500		; 1F4h
	bl           Sleep
; Line 137
	lis          r30,?InfHealth@@3_NA
; Line 139
	lis          r10,?commands@@YAKPA_W@Z
	li           r8,0
	li           r7,0
	li           r4,0
	lbz          r11,?InfHealth@@3_NA(r30)
	li           r3,0
	addi         r5,r10,?commands@@YAKPA_W@Z
	cmplwi       cr6,r11,1
	bne          cr6,$LN14@ButPress
	lis          r11,??_C@_1CM@LIPPJPJG@I?$AAn?$AAf?$AA?5?$AAI?$AAt?$AAe?$AAm?$AAs?$AA?5?$AAD?$AAe?$AAa?$AAc?$AAt?$AAi?$AAv?$AAa?$AAt?$AAe?$AAd?$AA?$AA?$AA@
	addi         r6,r11,??_C@_1CM@LIPPJPJG@I?$AAn?$AAf?$AA?5?$AAI?$AAt?$AAe?$AAm?$AAs?$AA?5?$AAD?$AAe?$AAa?$AAc?$AAt?$AAi?$AAv?$AAa?$AAt?$AAe?$AAd?$AA?$AA?$AA@
	bl           CreateThread
; Line 140
	lis          r4,32094		; 7D5Eh
	lwz          r3,?Timer1_addr@@3KA(r23)
	ori          r4,r4,20560		; 5050h
	bl           SetDWORD
; Line 141
	mr           r11,r31
; Line 144
	b            $LN42@ButPress
$LN14@ButPress:
; Line 146
	lis          r11,??_C@_1CI@MDNCHAML@I?$AAn?$AAf?$AA?5?$AAI?$AAt?$AAe?$AAm?$AAs?$AA?5?$AAA?$AAc?$AAt?$AAi?$AAv?$AAa?$AAt?$AAe?$AAd?$AA?$AA?$AA@
	addi         r6,r11,??_C@_1CI@MDNCHAML@I?$AAn?$AAf?$AA?5?$AAI?$AAt?$AAe?$AAm?$AAs?$AA?5?$AAA?$AAc?$AAt?$AAi?$AAv?$AAa?$AAt?$AAe?$AAd?$AA?$AA?$AA@
	bl           CreateThread
; Line 147
	lis          r4,32094		; 7D5Eh
	lwz          r3,?Timer1_addr@@3KA(r23)
	ori          r4,r4,21012		; 5214h
	bl           SetDWORD
; Line 148
	li           r11,1
$LN42@ButPress:
	stb          r11,?InfHealth@@3_NA(r30)
; Line 149
	bl           ?Vibr01@@YAXXZ
; Line 152
	addi         r10,r1,g_mb_result$
; Line 153
	addi         r9,r1,g_mb_result$+2
; Line 156
	stw          r21,?Prompt@@3KA(r22)
	addi         r8,r1,g_mb_result$+4
	addi         r7,r1,g_mb_result$+6
	mr           r11,r21
	sth          r31,0(r10)
	sth          r31,0(r9)
	sth          r31,0(r8)
	sth          r31,0(r7)
$LN15@ButPress:
; Line 158
	lhz          r11,g_mb_result$(r1)		; 208 (0D0h)
	lis          r10,-32188		; 8244h
	lis          r25,?NOPThis@@3KA
	ori          r24,r10,58540		; 0E4ACh
	cmplwi       cr6,r11,22532		; 5804h
	bne          cr6,$LN12@ButPress
	lhz          r11,g_mb_result$+2(r1)		; 210 (0D2h)
	cmplwi       cr6,r11,22532		; 5804h
	bne          cr6,$LN12@ButPress
	lhz          r11,g_mb_result$+4(r1)		; 212 (0D4h)
	cmplwi       cr6,r11,22532		; 5804h
	bne          cr6,$LN12@ButPress
	lhz          r11,g_mb_result$+6(r1)		; 214 (0D6h)
	cmplwi       cr6,r11,22532		; 5804h
	bne          cr6,$LN12@ButPress
; Line 160
	li           r3,500		; 1F4h
	bl           Sleep
; Line 162
	lis          r30,?OneHitKo@@3_NA
; Line 164
	lis          r10,?commands@@YAKPA_W@Z
	li           r8,0
	li           r7,0
	li           r4,0
	lbz          r11,?OneHitKo@@3_NA(r30)
	li           r3,0
	addi         r5,r10,?commands@@YAKPA_W@Z
	cmplwi       cr6,r11,1
	bne          cr6,$LN11@ButPress
	lis          r11,??_C@_1FA@INJBOHED@I?$AAn?$AAf?$AA?5?$AAF?$AAl?$AAa?$AAs?$AAh?$AAL?$AAi?$AAg?$AAh?$AAt?$AA?1?$AAH?$AAe?$AAa?$AAl?$AAt?$AAh?$AA?5?$AAS?$AAp?$AAr?$AAa?$AAy?$AA?5?$AAD?$AAe?$AAa?$AAc?$AA@
	addi         r6,r11,??_C@_1FA@INJBOHED@I?$AAn?$AAf?$AA?5?$AAF?$AAl?$AAa?$AAs?$AAh?$AAL?$AAi?$AAg?$AAh?$AAt?$AA?1?$AAH?$AAe?$AAa?$AAl?$AAt?$AAh?$AA?5?$AAS?$AAp?$AAr?$AAa?$AAy?$AA?5?$AAD?$AAe?$AAa?$AAc?$AA@
	bl           CreateThread
	lis          r4,-12257		; 0D01Fh
; Line 165
	mr           r3,r24
	ori          r4,r4,80		; 50h
	bl           SetDWORD
; Line 166
	mr           r11,r31
; Line 169
	b            $LN43@ButPress
$LN11@ButPress:
; Line 171
	lis          r11,??_C@_1EM@GEABNFNE@I?$AAn?$AAf?$AA?5?$AAF?$AAl?$AAa?$AAs?$AAh?$AAL?$AAi?$AAg?$AAh?$AAt?$AA?1?$AAH?$AAe?$AAa?$AAl?$AAt?$AAh?$AA?5?$AAS?$AAp?$AAr?$AAa?$AAy?$AA?5?$AAA?$AAc?$AAt?$AAi?$AA@
	addi         r6,r11,??_C@_1EM@GEABNFNE@I?$AAn?$AAf?$AA?5?$AAF?$AAl?$AAa?$AAs?$AAh?$AAL?$AAi?$AAg?$AAh?$AAt?$AA?1?$AAH?$AAe?$AAa?$AAl?$AAt?$AAh?$AA?5?$AAS?$AAp?$AAr?$AAa?$AAy?$AA?5?$AAA?$AAc?$AAt?$AAi?$AA@
	bl           CreateThread
; Line 172
	mr           r3,r24
	lwz          r4,?NOPThis@@3KA(r25)
	bl           SetDWORD
; Line 173
	li           r11,1
$LN43@ButPress:
	stb          r11,?OneHitKo@@3_NA(r30)
; Line 174
	bl           ?Vibr01@@YAXXZ
; Line 177
	addi         r10,r1,g_mb_result$
; Line 178
	addi         r9,r1,g_mb_result$+2
; Line 181
	stw          r21,?Prompt@@3KA(r22)
	addi         r8,r1,g_mb_result$+4
	addi         r7,r1,g_mb_result$+6
	mr           r11,r21
	sth          r31,0(r10)
	sth          r31,0(r9)
	sth          r31,0(r8)
	sth          r31,0(r7)
$LN12@ButPress:
; Line 183
	lhz          r11,g_mb_result$(r1)		; 208 (0D0h)
	lis          r27,?Addi_r11_1@@3KA
	lis          r28,?addr_ammo15@@3KA
	lis          r26,?Addi_r11_FFFF@@3KA
	cmplwi       cr6,r11,22534		; 5806h
	bne          cr6,$LN9@ButPress
	lhz          r11,g_mb_result$+2(r1)		; 210 (0D2h)
	cmplwi       cr6,r11,22534		; 5806h
	bne          cr6,$LN9@ButPress
	lhz          r11,g_mb_result$+4(r1)		; 212 (0D4h)
	cmplwi       cr6,r11,22534		; 5806h
	bne          cr6,$LN9@ButPress
	lhz          r11,g_mb_result$+6(r1)		; 214 (0D6h)
	cmplwi       cr6,r11,22534		; 5806h
	bne          cr6,$LN9@ButPress
; Line 185
	li           r3,500		; 1F4h
	bl           Sleep
; Line 187
	lis          r30,?InfAmmo@@3_NA
; Line 189
	lis          r10,?commands@@YAKPA_W@Z
	li           r8,0
	li           r7,0
	li           r4,0
	lbz          r11,?InfAmmo@@3_NA(r30)
	li           r3,0
	addi         r5,r10,?commands@@YAKPA_W@Z
	cmplwi       cr6,r11,1
	bne          cr6,$LN8@ButPress
	lis          r11,??_C@_1CK@BOPIAEGM@I?$AAn?$AAf?$AA?5?$AAA?$AAm?$AAm?$AAo?$AA?5?$AAD?$AAe?$AAa?$AAc?$AAt?$AAi?$AAv?$AAa?$AAt?$AAe?$AAd?$AA?$AA?$AA@
	addi         r6,r11,??_C@_1CK@BOPIAEGM@I?$AAn?$AAf?$AA?5?$AAA?$AAm?$AAm?$AAo?$AA?5?$AAD?$AAe?$AAa?$AAc?$AAt?$AAi?$AAv?$AAa?$AAt?$AAe?$AAd?$AA?$AA?$AA@
	bl           CreateThread
; Line 190
	lwz          r4,?Addi_r11_FFFF@@3KA(r26)
	lwz          r3,?addr_ammo15@@3KA(r28)
	bl           SetDWORD
; Line 191
	mr           r11,r31
; Line 194
	b            $LN44@ButPress
$LN8@ButPress:
; Line 196
	lis          r11,??_C@_1CG@KALJDFEB@I?$AAn?$AAf?$AA?5?$AAA?$AAm?$AAm?$AAo?$AA?5?$AAA?$AAc?$AAt?$AAi?$AAv?$AAa?$AAt?$AAe?$AAd?$AA?$AA?$AA@
	addi         r6,r11,??_C@_1CG@KALJDFEB@I?$AAn?$AAf?$AA?5?$AAA?$AAm?$AAm?$AAo?$AA?5?$AAA?$AAc?$AAt?$AAi?$AAv?$AAa?$AAt?$AAe?$AAd?$AA?$AA?$AA@
	bl           CreateThread
; Line 197
	lwz          r4,?Addi_r11_1@@3KA(r27)
	lwz          r3,?addr_ammo15@@3KA(r28)
	bl           SetDWORD
; Line 198
	li           r11,1
$LN44@ButPress:
	stb          r11,?InfAmmo@@3_NA(r30)
; Line 199
	bl           ?Vibr01@@YAXXZ
; Line 203
	addi         r10,r1,g_mb_result$
; Line 204
	addi         r9,r1,g_mb_result$+2
; Line 207
	stw          r21,?Prompt@@3KA(r22)
	addi         r8,r1,g_mb_result$+4
	addi         r7,r1,g_mb_result$+6
	mr           r11,r21
	sth          r31,0(r10)
	sth          r31,0(r9)
	sth          r31,0(r8)
	sth          r31,0(r7)
$LN9@ButPress:
; Line 209
	lhz          r11,g_mb_result$(r1)		; 208 (0D0h)
	lis          r10,-32196		; 823Ch
	ori          r29,r10,4520		; 11A8h
	cmplwi       cr6,r11,22533		; 5805h
	bne          cr6,$LN6@ButPress
	lhz          r11,g_mb_result$+2(r1)		; 210 (0D2h)
	cmplwi       cr6,r11,22533		; 5805h
	bne          cr6,$LN6@ButPress
	lhz          r11,g_mb_result$+4(r1)		; 212 (0D4h)
	cmplwi       cr6,r11,22533		; 5805h
	bne          cr6,$LN6@ButPress
	lhz          r11,g_mb_result$+6(r1)		; 214 (0D6h)
	cmplwi       cr6,r11,22533		; 5805h
	bne          cr6,$LN6@ButPress
; Line 211
	li           r3,500		; 1F4h
	bl           Sleep
; Line 213
	lis          r30,?InfTimer@@3_NA
; Line 215
	lis          r10,?commands@@YAKPA_W@Z
	li           r8,0
	li           r7,0
	li           r4,0
	lbz          r11,?InfTimer@@3_NA(r30)
	li           r3,0
	addi         r5,r10,?commands@@YAKPA_W@Z
	cmplwi       cr6,r11,1
	lis          r11,??_C@_1CI@DJCMKBGD@S?$AAt?$AAo?$AAp?$AA?5?$AAC?$AAr?$AAi?$AAt?$AAi?$AAc?$AAa?$AAl?$AA?5?$AAT?$AAi?$AAm?$AAe?$AAr?$AA?$AA?$AA@
	addi         r6,r11,??_C@_1CI@DJCMKBGD@S?$AAt?$AAo?$AAp?$AA?5?$AAC?$AAr?$AAi?$AAt?$AAi?$AAc?$AAa?$AAl?$AA?5?$AAT?$AAi?$AAm?$AAe?$AAr?$AA?$AA?$AA@
	bne          cr6,$LN5@ButPress
	bl           CreateThread
	lis          r4,-12257		; 0D01Fh
; Line 216
	mr           r3,r29
	ori          r4,r4,300		; 12Ch
	bl           SetDWORD
; Line 217
	mr           r11,r31
; Line 220
	b            $LN45@ButPress
$LN5@ButPress:
; Line 222
	bl           CreateThread
; Line 223
	mr           r3,r29
	lwz          r4,?NOPThis@@3KA(r25)
	bl           SetDWORD
; Line 224
	li           r11,1
$LN45@ButPress:
	stb          r11,?InfTimer@@3_NA(r30)
; Line 225
	bl           ?Vibr01@@YAXXZ
; Line 229
	addi         r10,r1,g_mb_result$
; Line 230
	addi         r9,r1,g_mb_result$+2
; Line 233
	stw          r21,?Prompt@@3KA(r22)
	addi         r8,r1,g_mb_result$+4
	addi         r7,r1,g_mb_result$+6
	mr           r11,r21
	sth          r31,0(r10)
	sth          r31,0(r9)
	sth          r31,0(r8)
	sth          r31,0(r7)
$LN6@ButPress:
; Line 235
	lhz          r11,g_mb_result$(r1)		; 208 (0D0h)
	cmplwi       cr6,r11,22544		; 5810h
	bne          cr6,$LN3@ButPress
	lhz          r11,g_mb_result$+2(r1)		; 210 (0D2h)
	cmplwi       cr6,r11,22544		; 5810h
	bne          cr6,$LN3@ButPress
	lhz          r11,g_mb_result$+4(r1)		; 212 (0D4h)
	cmplwi       cr6,r11,22544		; 5810h
	bne          cr6,$LN3@ButPress
	lhz          r11,g_mb_result$+6(r1)		; 214 (0D6h)
	cmplwi       cr6,r11,22544		; 5810h
	bne          cr6,$LN3@ButPress
; Line 237
	li           r3,500		; 1F4h
	bl           Sleep
; Line 239
	lis          r30,?ALLCheats@@3_NA
; Line 241
	lis          r10,?commands@@YAKPA_W@Z
	li           r8,0
	li           r7,0
	li           r4,0
	lbz          r11,?ALLCheats@@3_NA(r30)
	li           r3,0
	addi         r5,r10,?commands@@YAKPA_W@Z
	cmplwi       cr6,r11,1
	bne          cr6,$LN2@ButPress
	lis          r11,??_C@_1CO@MIOLOFPF@A?$AAl?$AAl?$AA?5?$AAC?$AAh?$AAe?$AAa?$AAt?$AAs?$AA?5?$AAD?$AAe?$AAa?$AAc?$AAt?$AAi?$AAv?$AAa?$AAt?$AAe?$AAd?$AA?$AA?$AA@
	addi         r6,r11,??_C@_1CO@MIOLOFPF@A?$AAl?$AAl?$AA?5?$AAC?$AAh?$AAe?$AAa?$AAt?$AAs?$AA?5?$AAD?$AAe?$AAa?$AAc?$AAt?$AAi?$AAv?$AAa?$AAt?$AAe?$AAd?$AA?$AA?$AA@
	bl           CreateThread
; Line 242
	lis          r4,32094		; 7D5Eh
	lwz          r3,?Timer1_addr@@3KA(r23)
	ori          r4,r4,20560		; 5050h
	bl           SetDWORD
	lis          r4,-12257		; 0D01Fh
; Line 243
	mr           r3,r24
	ori          r4,r4,80		; 50h
	bl           SetDWORD
; Line 244
	lwz          r4,?Addi_r11_FFFF@@3KA(r26)
	lwz          r3,?addr_ammo15@@3KA(r28)
	bl           SetDWORD
	lis          r4,-12257		; 0D01Fh
; Line 245
	mr           r3,r29
	ori          r4,r4,300		; 12Ch
	bl           SetDWORD
; Line 246
	stb          r31,?ALLCheats@@3_NA(r30)
; Line 249
	b            $LN46@ButPress
$LN2@ButPress:
; Line 251
	lis          r11,??_C@_1CK@BCNAHGHJ@A?$AAl?$AAl?$AA?5?$AAC?$AAh?$AAe?$AAa?$AAt?$AAs?$AA?5?$AAA?$AAc?$AAt?$AAi?$AAv?$AAa?$AAt?$AAe?$AAd?$AA?$AA?$AA@
	addi         r6,r11,??_C@_1CK@BCNAHGHJ@A?$AAl?$AAl?$AA?5?$AAC?$AAh?$AAe?$AAa?$AAt?$AAs?$AA?5?$AAA?$AAc?$AAt?$AAi?$AAv?$AAa?$AAt?$AAe?$AAd?$AA?$AA?$AA@
	bl           CreateThread
; Line 252
	lis          r4,32094		; 7D5Eh
	lwz          r3,?Timer1_addr@@3KA(r23)
	ori          r4,r4,21012		; 5214h
	bl           SetDWORD
; Line 253
	mr           r3,r24
	lwz          r4,?NOPThis@@3KA(r25)
	bl           SetDWORD
; Line 254
	lwz          r4,?Addi_r11_1@@3KA(r27)
	lwz          r3,?addr_ammo15@@3KA(r28)
	bl           SetDWORD
; Line 255
	mr           r3,r29
	lwz          r4,?NOPThis@@3KA(r25)
	bl           SetDWORD
; Line 256
	li           r11,1
	stb          r11,?ALLCheats@@3_NA(r30)
$LN46@ButPress:
; Line 257
	bl           ?Vibr01@@YAXXZ
; Line 265
	mr           r11,r21
	stw          r21,?Prompt@@3KA(r22)
$LN3@ButPress:
; Line 267
	addi         r1,r1,192		; 0C0h
	b            __restgprlr_21
$M74507:
; End code for function: ?ButPress@@YAXU_MESSAGEBOX_RESULT@@@Z
?ButPress@@YAXU_MESSAGEBOX_RESULT@@@Z ENDP
							; ButPress
PUBLIC	??_C@_1CE@LFPDCKII@A?$AAl?$AAo?$AAn?$AAe?$AA?5?$AAi?$AAn?$AA?5?$AAt?$AAh?$AAe?$AA?5?$AAD?$AAa?$AAr?$AAk?$AA?$AA?$AA@ ; `string'
PUBLIC	?SearchAddr@@YAXXZ				; SearchAddr
;	COMDAT .pdata
; File c:\users\t3fur\desktop\trainer engine t3\trainer engine t3\trainer\common.h
.pdata	SEGMENT
$T74517	DD	?SearchAddr@@YAXXZ
	DD	040001503H
;	COMDAT ??_C@_1CE@LFPDCKII@A?$AAl?$AAo?$AAn?$AAe?$AA?5?$AAi?$AAn?$AA?5?$AAt?$AAh?$AAe?$AA?5?$AAD?$AAa?$AAr?$AAk?$AA?$AA?$AA@
.rdata	SEGMENT
??_C@_1CE@LFPDCKII@A?$AAl?$AAo?$AAn?$AAe?$AA?5?$AAi?$AAn?$AA?5?$AAt?$AAh?$AAe?$AA?5?$AAD?$AAa?$AAr?$AAk?$AA?$AA?$AA@ DB 00H
	DB	'A', 00H, 'l', 00H, 'o', 00H, 'n', 00H, 'e', 00H, ' ', 00H, 'i'
	DB	00H, 'n', 00H, ' ', 00H, 't', 00H, 'h', 00H, 'e', 00H, ' ', 00H
	DB	'D', 00H, 'a', 00H, 'r', 00H, 'k', 00H, 00H	; `string'
; Function compile flags: /Ogsu

	.code

?SearchAddr@@YAXXZ PROC NEAR				; SearchAddr, COMDAT

; Begin code for function: ?SearchAddr@@YAXXZ
; File c:\users\t3fur\desktop\trainer engine t3\trainer engine t3\trainer\alone in the dark.h
; Line 270
	mflr         r12
	stw          r12,-8(r1)
	stwu         r1,-60h(r1)
.endprolog
$M74515:
; Line 271
	lis          r11,??_C@_1CE@LFPDCKII@A?$AAl?$AAo?$AAn?$AAe?$AA?5?$AAi?$AAn?$AA?5?$AAt?$AAh?$AAe?$AA?5?$AAD?$AAa?$AAr?$AAk?$AA?$AA?$AA@
	lis          r10,?commands@@YAKPA_W@Z
	addi         r6,r11,??_C@_1CE@LFPDCKII@A?$AAl?$AAo?$AAn?$AAe?$AA?5?$AAi?$AAn?$AA?5?$AAt?$AAh?$AAe?$AA?5?$AAD?$AAa?$AAr?$AAk?$AA?$AA?$AA@
	li           r8,0
	li           r7,0
	addi         r5,r10,?commands@@YAKPA_W@Z
	li           r4,0
	li           r3,0
	bl           CreateThread
; Line 272
	li           r3,25		; 19h
	bl           Sleep
; Line 273
	lis          r10,?SetAddr@@3_NA
	li           r11,1
	stb          r11,?SetAddr@@3_NA(r10)
; Line 274
	addi         r1,r1,96		; 60h
	lwz          r12,-8(r1)
	mtlr         r12
	blr
$M74516:
; End code for function: ?SearchAddr@@YAXXZ
?SearchAddr@@YAXXZ ENDP
							; SearchAddr
PUBLIC	??_C@_0DB@FDCDKAFH@Detected?5title?5end?0?5Trainer?5is?5t@ ; `string'
PUBLIC	??_C@_0BJ@CPIKGEBI@XInputGetState?5Failed?$CB?$AN?6?$AA@ ; `string'
PUBLIC	??_C@_0BE@EOMNGPMP@Begging?5main?5loop?$AN?6?$AA@ ; `string'
PUBLIC	??_C@_0BG@DDNMLFKI@Main?5thread?5started?$AN?6?$AA@ ; `string'
PUBLIC	?MainThread@@YAKPAX@Z				; MainThread
EXTRN	XInputGetState:PROC
EXTRN	ExCreateThread:PROC
EXTRN	XapiThreadStartup:PROC
EXTRN	ExRegisterTitleTerminateNotification:PROC
EXTRN	__restgprlr_20:PROC
EXTRN	__savegprlr_20:PROC
;	COMDAT .pdata
; File c:\users\t3fur\desktop\trainer engine t3\trainer engine t3\trainer\main.cpp
.pdata	SEGMENT
$T74530	DD	?MainThread@@YAKPAX@Z
	DD	040009f03H
;	COMDAT ??_C@_0DB@FDCDKAFH@Detected?5title?5end?0?5Trainer?5is?5t@
.rdata	SEGMENT
??_C@_0DB@FDCDKAFH@Detected?5title?5end?0?5Trainer?5is?5t@ DB 'Detected t'
	DB	'itle end, Trainer is terminating here.', 00H ; `string'
;	COMDAT ??_C@_0BJ@CPIKGEBI@XInputGetState?5Failed?$CB?$AN?6?$AA@
.rdata	SEGMENT
??_C@_0BJ@CPIKGEBI@XInputGetState?5Failed?$CB?$AN?6?$AA@ DB 'XInputGetSta'
	DB	'te Failed!', 0dH, 0aH, 00H			; `string'
;	COMDAT ??_C@_0BE@EOMNGPMP@Begging?5main?5loop?$AN?6?$AA@
.rdata	SEGMENT
??_C@_0BE@EOMNGPMP@Begging?5main?5loop?$AN?6?$AA@ DB 'Begging main loop', 0dH
	DB	0aH, 00H					; `string'
;	COMDAT ??_C@_0BG@DDNMLFKI@Main?5thread?5started?$AN?6?$AA@
.rdata	SEGMENT
??_C@_0BG@DDNMLFKI@Main?5thread?5started?$AN?6?$AA@ DB 'Main thread start'
	DB	'ed', 0dH, 0aH, 00H				; `string'
; Function compile flags: /Ogsu

	.code

?MainThread@@YAKPAX@Z PROC NEAR				; MainThread, COMDAT

; Begin code for function: ?MainThread@@YAKPAX@Z
; Line 83
	mflr         r12
	bl           __savegprlr_20
	stwu         r1,-0C0h(r1)
.endprolog
$M74528:
; Line 84
	lis          r11,??_C@_0BG@DDNMLFKI@Main?5thread?5started?$AN?6?$AA@
	addi         r3,r11,??_C@_0BG@DDNMLFKI@Main?5thread?5started?$AN?6?$AA@
	bl           DbgPrint
; Line 86
	lis          r9,?g_ettr@@3U_EX_TITLE_TERMINATE_REGISTRATION@@A
	lis          r10,?TitleTerminate@@YAXXZ
	addi         r3,r9,?g_ettr@@3U_EX_TITLE_TERMINATE_REGISTRATION@@A
; Line 97
	lis          r11,31872		; 7C80h
	addi         r10,r10,?TitleTerminate@@YAXXZ
	li           r4,1
	stw          r10,?g_ettr@@3U_EX_TITLE_TERMINATE_REGISTRATION@@A(r9)
	stw          r11,4(r3)
	bl           ExRegisterTitleTerminateNotification
	lis          r11,??_C@_0BE@EOMNGPMP@Begging?5main?5loop?$AN?6?$AA@
	addi         r3,r11,??_C@_0BE@EOMNGPMP@Begging?5main?5loop?$AN?6?$AA@
	bl           DbgPrint
	lis          r9,?hThId01@@3KA
	lis          r8,?hTh01@@3PAXA
	lis          r11,?StaticHandler@@YAXXZ
	lis          r10,XapiThreadStartup
	addi         r5,r9,?hThId01@@3KA
	addi         r3,r8,?hTh01@@3PAXA
	li           r9,2
	li           r8,0
	addi         r7,r11,?StaticHandler@@YAXXZ
	addi         r6,r10,XapiThreadStartup
	li           r4,0
	bl           ExCreateThread
	lis          r20,?g_killThread@@3HA
	lwz          r11,?g_killThread@@3HA(r20)
	cmpwi        cr6,r11,1
	beq          cr6,$LN13@MainThread
	lis          r11,??_C@_0BJ@CPIKGEBI@XInputGetState?5Failed?$CB?$AN?6?$AA@
	lis          r10,?g_mb_result@@3U_MESSAGEBOX_RESULT@@A
	lis          r9,?state@@3U_XINPUT_STATE@@A
	lis          r8,Game_Init
	lis          r28,staticcode
	li           r30,0
	lis          r29,?Prompt@@3KA
	lis          r21,?dwPlayerIndex@@3KA
	lis          r22,?info@@3KA
	lis          r25,?XamGetCurrentTitleId@@3P6AIXZA
	lis          r24,?BootInfo@@3KA
	addi         r27,r11,??_C@_0BJ@CPIKGEBI@XInputGetState?5Failed?$CB?$AN?6?$AA@
	addi         r31,r10,?g_mb_result@@3U_MESSAGEBOX_RESULT@@A
	addi         r23,r9,?state@@3U_XINPUT_STATE@@A
	addi         r26,r8,Game_Init
$LL14@MainThread:					; Start of loop
; Line 99
	lwz          r11,?XamGetCurrentTitleId@@3P6AIXZA(r25)
	mtctr        r11
	bctrl
	lwz          r11,?BootInfo@@3KA(r24)
	cmplw        cr6,r11,r3
	beq          cr6,$LN7@MainThread
; Line 103
	stb          r30,staticcode(r28)
	li           r3,500		; 1F4h
	mr           r11,r30
	bl           Sleep
; Line 104
	lwz          r11,?XamGetCurrentTitleId@@3P6AIXZA(r25)
	mtctr        r11
	bctrl
	lis          r11,-32768		; 8000h
; Line 105
	stw          r3,?BootInfo@@3KA(r24)
	cmplw        cr6,r3,r11
	blt          cr6,$LN10@MainThread
	lis          r11,-2		; 0FFFEh
	ori          r11,r11,2002		; 7D2h
	cmplw        cr6,r3,r11
	bne          cr6,$LN7@MainThread
$LN10@MainThread:
; Line 107
	mr           r11,r30
	stw          r30,?info@@3KA(r22)
	mr           r10,r26
$LL9@MainThread:					; Start of loop
; Line 109
	lwz          r9,0(r10)
	cmplw        cr6,r9,r3
	beq          cr6,$LN19@MainThread
; Line 107
	addi         r11,r11,1
	addi         r10,r10,8
	stw          r11,?info@@3KA(r22)
	cmplwi       cr6,r11,1
	blt          cr6,$LL9@MainThread
; Line 109
	b            $LN7@MainThread
$LN19@MainThread:
; Line 111
	slwi         r11,r11,3
	addi         r10,r26,4
	lwzx         r11,r11,r10
	mtctr        r11
	bctrl
; Line 113
	li           r11,1
	stb          r11,staticcode(r28)
$LN7@MainThread:
; Line 120
	mr           r4,r23
	lwz          r3,?dwPlayerIndex@@3KA(r21)
	bl           XInputGetState
	cmplwi       r3,0
	bne          $LN5@MainThread
; Line 193
	lhz          r11,4(r23)
	rlwinm.      r9,r11,0,26,26
	mr           r10,r11
	beq          $LN4@MainThread
	clrlwi.      r10,r10,31
	beq          $LN4@MainThread
; Line 195
	bl           ?ShowTrainerMain@@YAXXZ
	lhz          r11,4(r23)
$LN4@MainThread:
; Line 201
	clrlwi.      r10,r11,31
	clrlwi       r11,r11,16
	beq          $LN3@MainThread
	rlwinm.      r11,r11,0,27,27
	beq          $LN3@MainThread
; Line 203
	bl           ?ShowTrainerMain@@YAXXZ
$LN3@MainThread:
; Line 206
	lwz          r11,?Prompt@@3KA(r29)
	cmplwi       cr6,r11,997		; 3E5h
	bne          cr6,$LN1@MainThread
	lhz          r11,0(r31)
	cmplwi       r11,0
	beq          $LN1@MainThread
	lhz          r11,2(r31)
	cmplwi       r11,0
	beq          $LN1@MainThread
	lhz          r11,4(r31)
	cmplwi       r11,0
	beq          $LN1@MainThread
	lhz          r11,6(r31)
	cmplwi       r11,0
	beq          $LN1@MainThread
; Line 208
	ld           r3,0(r31)
	bl           ?ButPress@@YAXU_MESSAGEBOX_RESULT@@@Z
; Line 213
	sth          r30,0(r31)
	lis          r10,0
	sth          r30,2(r31)
; Line 214
	ori          r10,r10,39321		; 9999h
	sth          r30,4(r31)
	addi         r11,r31,2
	addi         r11,r31,4
	sth          r30,6(r31)
	addi         r11,r31,6
	stw          r10,?Prompt@@3KA(r29)
; Line 216
	b            $LN1@MainThread
$LN5@MainThread:
; Line 220
	sth          r30,0(r31)
	lis          r11,0
	sth          r30,2(r31)
; Line 222
	sth          r30,4(r31)
	ori          r11,r11,39321		; 9999h
	sth          r30,6(r31)
	stw          r11,?Prompt@@3KA(r29)
	mr           r3,r27
	addi         r11,r31,2
	addi         r11,r31,4
	addi         r11,r31,6
	bl           DbgPrint
$LN1@MainThread:
; Line 225
	li           r3,500		; 1F4h
	bl           Sleep
	lwz          r11,?g_killThread@@3HA(r20)
	cmpwi        cr6,r11,1
	bne          cr6,$LL14@MainThread
$LN13@MainThread:
; Line 228
	lis          r11,??_C@_0DB@FDCDKAFH@Detected?5title?5end?0?5Trainer?5is?5t@
	addi         r3,r11,??_C@_0DB@FDCDKAFH@Detected?5title?5end?0?5Trainer?5is?5t@
	bl           DbgPrint
; Line 229
	li           r3,0
; Line 230
	addi         r1,r1,192		; 0C0h
	b            __restgprlr_20
$M74529:
; End code for function: ?MainThread@@YAKPAX@Z
?MainThread@@YAKPAX@Z ENDP
							; MainThread
PUBLIC	??_C@_0BG@ENLMKEPF@Creating?5MainThread?$AN?6?$AA@ ; `string'
PUBLIC	??_C@_0CB@DOAOFKOA@Resolving?5XamGetCurrentTitleId?$AN?6@ ; `string'
PUBLIC	Initialize
EXTRN	CloseHandle:PROC
EXTRN	ResumeThread:PROC
EXTRN	XSetThreadProcessor:PROC
;	COMDAT .pdata
.pdata	SEGMENT
$T74536	DD	Initialize
	DD	040002f03H
;	COMDAT ??_C@_0BG@ENLMKEPF@Creating?5MainThread?$AN?6?$AA@
.rdata	SEGMENT
??_C@_0BG@ENLMKEPF@Creating?5MainThread?$AN?6?$AA@ DB 'Creating MainThrea'
	DB	'd', 0dH, 0aH, 00H				; `string'
;	COMDAT ??_C@_0CB@DOAOFKOA@Resolving?5XamGetCurrentTitleId?$AN?6@
.rdata	SEGMENT
??_C@_0CB@DOAOFKOA@Resolving?5XamGetCurrentTitleId?$AN?6@ DB 'Resolving X'
	DB	'amGetCurrentTitleId', 0dH, 0aH, 00H		; `string'
; Function compile flags: /Ogsu

	.code
hThread$ = 80						; size = 4
hThreadId$ = 84						; size = 4

Initialize PROC NEAR					; COMDAT

; Begin code for function: Initialize
; Line 240
	mflr         r12
	stw          r12,-8(r1)
	stwu         r1,-60h(r1)
.endprolog
$M74534:
; Line 244
	lis          r10,?state@@3U_XINPUT_STATE@@A
	li           r11,0
	addi         r9,r10,?state@@3U_XINPUT_STATE@@A
; Line 245
	lis          r8,??_C@_0CB@DOAOFKOA@Resolving?5XamGetCurrentTitleId?$AN?6@
	stw          r11,?state@@3U_XINPUT_STATE@@A(r10)
	addi         r3,r8,??_C@_0CB@DOAOFKOA@Resolving?5XamGetCurrentTitleId?$AN?6@
	stw          r11,4(r9)
	stw          r11,8(r9)
	stw          r11,0Ch(r9)
	bl           DbgPrint
; Line 247
	lis          r11,??_C@_07FEDBCEF@xam?4xex?$AA@
	li           r4,463		; 1CFh
	addi         r3,r11,??_C@_07FEDBCEF@xam?4xex?$AA@
	bl           ?resolveFunct@@YAKPADK@Z
	lis          r11,?XamGetCurrentTitleId@@3P6AIXZA
; Line 249
	cmplwi       r3,0
	stw          r3,?XamGetCurrentTitleId@@3P6AIXZA(r11)
	beq          $LN2@Initialize
; Line 255
	lis          r11,??_C@_0BG@ENLMKEPF@Creating?5MainThread?$AN?6?$AA@
	addi         r3,r11,??_C@_0BG@ENLMKEPF@Creating?5MainThread?$AN?6?$AA@
	bl           DbgPrint
; Line 256
	lis          r11,?MainThread@@YAKPAX@Z
	lis          r10,XapiThreadStartup
	li           r9,2
	li           r8,0
	addi         r7,r11,?MainThread@@YAKPAX@Z
	addi         r6,r10,XapiThreadStartup
	addi         r5,r1,hThreadId$
	li           r4,0
	addi         r3,r1,hThread$
	bl           ExCreateThread
; Line 257
	li           r4,3
	lwz          r3,hThread$(r1)		; 80 (50h)
	bl           XSetThreadProcessor
; Line 258
	lwz          r3,hThread$(r1)		; 80 (50h)
	bl           ResumeThread
; Line 259
	lwz          r3,hThread$(r1)		; 80 (50h)
	bl           CloseHandle
; Line 263
	li           r3,3000		; 0BB8h
	bl           Sleep
$LN2@Initialize:
; Line 265
	addi         r1,r1,96		; 60h
	lwz          r12,-8(r1)
	mtlr         r12
	blr
$M74535:
; End code for function: Initialize
Initialize ENDP

PUBLIC	??_C@_1DM@DIJBGABP@h?$AAt?$AAt?$AAp?$AA?3?$AA?1?$AA?1?$AAf?$AAr?$AAe?$AAe?$AAd?$AAo?$AAm?$AAt?$AAr?$AAa?$AAi?$AAn?$AAe?$AAr?$AAs?$AA?4?$AAc?$AAo?$AA?4?$AAu?$AAk?$AA?1?$AA?$AA?$AA@ ; `string'
PUBLIC	??_C@_08HCFALKAL@xbdm?4xex?$AA@			; `string'
PUBLIC	??_C@_0BC@LECOGFNE@Trainer?5Loaded?$CB?$AN?6?$AA@ ; `string'
PUBLIC	DllMain
;	COMDAT .pdata
; File c:\users\t3fur\desktop\trainer engine t3\trainer engine t3\trainer\common.h
.pdata	SEGMENT
$T74548	DD	DllMain
	DD	040005105H
;	COMDAT ??_C@_1DM@DIJBGABP@h?$AAt?$AAt?$AAp?$AA?3?$AA?1?$AA?1?$AAf?$AAr?$AAe?$AAe?$AAd?$AAo?$AAm?$AAt?$AAr?$AAa?$AAi?$AAn?$AAe?$AAr?$AAs?$AA?4?$AAc?$AAo?$AA?4?$AAu?$AAk?$AA?1?$AA?$AA?$AA@
.rdata	SEGMENT
??_C@_1DM@DIJBGABP@h?$AAt?$AAt?$AAp?$AA?3?$AA?1?$AA?1?$AAf?$AAr?$AAe?$AAe?$AAd?$AAo?$AAm?$AAt?$AAr?$AAa?$AAi?$AAn?$AAe?$AAr?$AAs?$AA?4?$AAc?$AAo?$AA?4?$AAu?$AAk?$AA?1?$AA?$AA?$AA@ DB 00H
	DB	'h', 00H, 't', 00H, 't', 00H, 'p', 00H, ':', 00H, '/', 00H, '/'
	DB	00H, 'f', 00H, 'r', 00H, 'e', 00H, 'e', 00H, 'd', 00H, 'o', 00H
	DB	'm', 00H, 't', 00H, 'r', 00H, 'a', 00H, 'i', 00H, 'n', 00H, 'e'
	DB	00H, 'r', 00H, 's', 00H, '.', 00H, 'c', 00H, 'o', 00H, '.', 00H
	DB	'u', 00H, 'k', 00H, '/', 00H, 00H		; `string'
;	COMDAT ??_C@_08HCFALKAL@xbdm?4xex?$AA@
.rdata	SEGMENT
??_C@_08HCFALKAL@xbdm?4xex?$AA@ DB 'xbdm.xex', 00H	; `string'
;	COMDAT ??_C@_0BC@LECOGFNE@Trainer?5Loaded?$CB?$AN?6?$AA@
.rdata	SEGMENT
??_C@_0BC@LECOGFNE@Trainer?5Loaded?$CB?$AN?6?$AA@ DB 'Trainer Loaded!', 0dH
	DB	0aH, 00H					; `string'
; Function compile flags: /Ogsu

	.code

DllMain	PROC NEAR					; COMDAT

; Begin code for function: DllMain
; File c:\users\t3fur\desktop\trainer engine t3\trainer engine t3\trainer\main.cpp
; Line 268
	mflr         r12
	stw          r12,-8(r1)
	std          r30,-18h(r1)
	std          r31,-10h(r1)
	stwu         r1,-70h(r1)
.endprolog
$M74546:
; Line 269
	cmplwi       cr6,r4,1
	bne          cr6,$LN1@DllMain
; Line 272
	lis          r11,??_C@_0BC@LECOGFNE@Trainer?5Loaded?$CB?$AN?6?$AA@
	addi         r3,r11,??_C@_0BC@LECOGFNE@Trainer?5Loaded?$CB?$AN?6?$AA@
	bl           DbgPrint
; Line 273
	lis          r11,??_C@_08HCFALKAL@xbdm?4xex?$AA@
	li           r4,40		; 28h
	addi         r31,r11,??_C@_08HCFALKAL@xbdm?4xex?$AA@
	mr           r3,r31
	bl           ?ResolveFunct@@YAKPADK@Z
	lis          r11,?DmSetMemoryD@@3P6AJPAXKPBXPAK@ZA
; Line 274
	lis          r30,?KrnlType@@3KA
	cmplwi       r3,0
	stw          r3,?DmSetMemoryD@@3P6AJPAXKPBXPAK@ZA(r11)
	beq          $LN3@DllMain
; Line 275
	li           r11,1
; Line 276
	mr           r3,r31
	stw          r11,?KrnlType@@3KA(r30)
	li           r4,10		; 0Ah
	bl           ?ResolveFunct@@YAKPADK@Z
	lis          r11,?DmGetMemoryD@@3P6AJPBXKPAXPAK@ZA
	stw          r3,?DmGetMemoryD@@3P6AJPBXKPAXPAK@ZA(r11)
$LN3@DllMain:
; Line 282
	bl           Initialize
; Line 284
	lwz          r11,?KrnlType@@3KA(r30)
; Line 286
	lis          r10,?commands@@YAKPA_W@Z
	cmplwi       cr6,r11,1
	lis          r11,??_C@_1DM@DIJBGABP@h?$AAt?$AAt?$AAp?$AA?3?$AA?1?$AA?1?$AAf?$AAr?$AAe?$AAe?$AAd?$AAo?$AAm?$AAt?$AAr?$AAa?$AAi?$AAn?$AAe?$AAr?$AAs?$AA?4?$AAc?$AAo?$AA?4?$AAu?$AAk?$AA?1?$AA?$AA?$AA@
	li           r8,0
	li           r7,0
	li           r4,0
	li           r3,0
	addi         r6,r11,??_C@_1DM@DIJBGABP@h?$AAt?$AAt?$AAp?$AA?3?$AA?1?$AA?1?$AAf?$AAr?$AAe?$AAe?$AAd?$AAo?$AAm?$AAt?$AAr?$AAa?$AAi?$AAn?$AAe?$AAr?$AAs?$AA?4?$AAc?$AAo?$AA?4?$AAu?$AAk?$AA?1?$AA?$AA?$AA@
	addi         r5,r10,?commands@@YAKPA_W@Z
	bne          cr6,$LN2@DllMain
	bl           CreateThread
; Line 287
	li           r3,200		; 0C8h
	bl           Sleep
; Line 291
	lis          r9,?g_mb_result@@3U_MESSAGEBOX_RESULT@@A
; Line 293
	li           r11,0
	addi         r10,r9,?g_mb_result@@3U_MESSAGEBOX_RESULT@@A
; Line 294
	lis          r7,?Prompt@@3KA
	lis          r8,0
	sth          r11,?g_mb_result@@3U_MESSAGEBOX_RESULT@@A(r9)
	ori          r8,r8,39321		; 9999h
	sth          r11,2(r10)
	sth          r11,4(r10)
	addi         r9,r10,2
	addi         r9,r10,4
	addi         r9,r10,6
	stw          r8,?Prompt@@3KA(r7)
	sth          r11,6(r10)
; Line 296
	b            $LN1@DllMain
$LN2@DllMain:
; Line 299
	bl           CreateThread
; Line 300
	li           r3,200		; 0C8h
	bl           Sleep
; Line 304
	lis          r9,?g_mb_result@@3U_MESSAGEBOX_RESULT@@A
; Line 306
	li           r11,0
	addi         r10,r9,?g_mb_result@@3U_MESSAGEBOX_RESULT@@A
; Line 307
	lis          r7,?Prompt@@3KA
	lis          r8,0
	sth          r11,?g_mb_result@@3U_MESSAGEBOX_RESULT@@A(r9)
	ori          r8,r8,39321		; 9999h
	sth          r11,2(r10)
	sth          r11,4(r10)
	addi         r9,r10,2
	sth          r11,6(r10)
	addi         r9,r10,4
	stw          r8,?Prompt@@3KA(r7)
	addi         r9,r10,6
$LN1@DllMain:
; Line 316
	li           r3,1
; Line 318
	addi         r1,r1,112		; 70h
	lwz          r12,-8(r1)
	mtlr         r12
	ld           r30,-18h(r1)
	ld           r31,-10h(r1)
	blr
$M74547:
; End code for function: DllMain
DllMain	ENDP

; Function compile flags: /Ogsu

	.code

??__EGameID@@YAXXZ PROC NEAR				; `dynamic initializer for 'GameID'', COMDAT

; Begin code for function: ??__EGameID@@YAXXZ
; Line 13
	lis          r11,?g_titleID@@3IA
	lis          r10,?GameID@@3KA
	lwz          r11,?g_titleID@@3IA(r11)
	stw          r11,?GameID@@3KA(r10)
	blr
; End code for function: ??__EGameID@@YAXXZ
??__EGameID@@YAXXZ ENDP
							; `dynamic initializer for 'GameID''
; Function compile flags: /Ogsu

	.code

??__EGame_Init@@YAXXZ PROC NEAR				; `dynamic initializer for 'Game_Init'', COMDAT

; Begin code for function: ??__EGame_Init@@YAXXZ
; Line 78
	lis          r11,?GameID@@3KA
	lis          r10,Game_Init
	lwz          r11,?GameID@@3KA(r11)
	stw          r11,Game_Init(r10)
; Line 80
	blr
; End code for function: ??__EGame_Init@@YAXXZ
??__EGame_Init@@YAXXZ ENDP
							; `dynamic initializer for 'Game_Init''
PUBLIC	?GameID@@3KA					; GameID
	.bss
?GameID@@3KA DD	01H DUP (?)				; GameID
	.data
Game_Init DB	4 DUP(00H)
	DD	?SearchAddr@@YAXXZ
	.CRT$XCU
GameID$initializer$ DD ??__EGameID@@YAXXZ
Game_Init$initializer$ DD ??__EGame_Init@@YAXXZ
END
